(dp0
S'matches'
p1
(dp2
S'a08e49ba'
p3
(icore
Match
p4
(dp5
S'players2'
p6
(lp7
VU0HTR4KRT
p8
aVU0HTVTLBS
p9
asS'players1'
p10
(lp11
VU0HTVEJKC
p12
aVU0HTJ2DK6
p13
asS'when'
p14
cdatetime
datetime
p15
(S'\x07\xe0\x0c\x06\r\t+\x05K\xf8'
p16
tp17
Rp18
sS'score1'
p19
I9
sS'score2'
p20
I10
sbsS'39001e28'
p21
(icore
Match
p22
(dp23
g6
(lp24
VU0KA76231
p25
aVU0HTQ6XQQ
p26
asg10
(lp27
VU0J8ETRH7
p28
aVU0JBNHJ3X
p29
asg14
g15
(S'\x07\xe0\x0c\x10\x0f)$\x0c.E'
p30
tp31
Rp32
sg19
I10
sg20
I7
sbsS'f22b7b89'
p33
(icore
Match
p34
(dp35
g6
(lp36
VU0HTQ6XQQ
p37
aVU0J0XLJUD
p38
asg10
(lp39
VU0HTJ2DK6
p40
aVU0HTVEJKC
p41
asg14
g15
(S'\x07\xe0\t\x17\x10\r0\x05\xa1{'
p42
tp43
Rp44
sg19
I4
sg20
I10
sbsS'774f29ca'
p45
(icore
Match
p46
(dp47
g6
(lp48
VU0HTPM4P8
p49
aVU0J8ETRH7
p50
asg10
(lp51
VU1CUW4Z7S
p52
aVU17V6C5K6
p53
asg14
g15
(S'\x07\xe0\t\x07\r5"\ni\x1e'
p54
tp55
Rp56
sg19
I3
sg20
I10
sbsS'0a16d58f'
p57
(icore
Match
p58
(dp59
g6
(lp60
VU0HTJ2DK6
p61
aVU0HTPM4P8
p62
asg10
(lp63
VU0HTQJMHN
p64
aVU0HTQ6XQQ
p65
asg14
g15
(S'\x07\xe0\x0c\x05\x12\x18:\x06 \x16'
p66
tp67
Rp68
sg19
I10
sg20
I1
sbsS'f0d18593'
p69
(icore
Match
p70
(dp71
g6
(lp72
VU0HTVEJKC
p73
aVU0HTQ6XQQ
p74
asg10
(lp75
VU0J13UGAF
p76
aVU0JBNHJ3X
p77
asg14
g15
(S'\x07\xe0\t\x17\x0c6\x16\tB\xf2'
p78
tp79
Rp80
sg19
I10
sg20
I5
sbsS'349b8a45'
p81
(icore
Match
p82
(dp83
g6
(lp84
VU0KA76231
p85
aVU0HTQ6XQQ
p86
asg10
(lp87
VU0HTSHTR9
p88
aVU0HTVTLBS
p89
asg14
g15
(S'\x07\xe0\t\x1c\x0f)\x19\x02a\xa3'
p90
tp91
Rp92
sg19
I8
sg20
I10
sbsS'560c9f0a'
p93
(icore
Match
p94
(dp95
g6
(lp96
VU0HTVTLBS
p97
aVU0JBNHJ3X
p98
asg10
(lp99
VU0HTJ2DK6
p100
aVU0J8ETRH7
p101
asg14
g15
(S'\x07\xe0\x08\x11\r\x06\x18\x00\xc2\x1e'
p102
tp103
Rp104
sg19
I8
sg20
I10
sbsS'51e9ea78'
p105
(icore
Match
p106
(dp107
g6
(lp108
VU0J13UGAF
p109
aVU0KA76231
p110
asg10
(lp111
VU0JBNHJ3X
p112
aVU0HTR4KRT
p113
asg14
g15
(S'\x07\xe0\n\x19\x0e\x1a\x1a\x08P\xf5'
p114
tp115
Rp116
sg19
I10
sg20
I7
sbsS'78caa399'
p117
(icore
Match
p118
(dp119
g6
(lp120
VU0HTRQ5HQ
p121
aVU07V0F5AS
p122
asg10
(lp123
VU0J8ETRH7
p124
aVU0JBNHJ3X
p125
asg14
g15
(S'\x07\xe0\x08\x0f\x0f.\x02\x03\xe5\x11'
p126
tp127
Rp128
sg19
I10
sg20
I9
sbsS'056d6d48'
p129
(icore
Match
p130
(dp131
g6
(lp132
VU0HTQJMHN
p133
aVU0HTPM4P8
p134
asg10
(lp135
VU0HTQ6XQQ
p136
aVU0HTVEJKC
p137
asg14
g15
(S'\x07\xe0\x0c\x0f\x111,\x04.\xeb'
p138
tp139
Rp140
sg19
I10
sg20
I9
sbsS'4a2cebb4'
p141
(icore
Match
p142
(dp143
g6
(lp144
VU0J13UGAF
p145
aVU0JBNHJ3X
p146
asg10
(lp147
VU0J8ETRH7
p148
aVU0HTPM4P8
p149
asg14
g15
(S'\x07\xe0\x07\x13\x0e#6\n\xf5\xe8'
p150
tp151
Rp152
sg19
I10
sg20
I5
sbsS'8020be92'
p153
(icore
Match
p154
(dp155
g6
(lp156
VU0HTVEJKC
p157
aVU0J0XLJUD
p158
asg10
(lp159
VU0KCZ16LT
p160
aVU0HTPUK8R
p161
asg14
g15
(S'\x07\xe0\x0c\x01\x0c7*\x08\x07\x11'
p162
tp163
Rp164
sg19
I10
sg20
I5
sbsS'4dbdd201'
p165
(icore
Match
p166
(dp167
g6
(lp168
VU0JBNHJ3X
p169
aVU0HTJ2DK6
p170
asg10
(lp171
VU0J8ETRH7
p172
aVU0HTVTLBS
p173
asg14
g15
(S'\x07\xe0\t\r\x0c*\x11\r\x8b\xdf'
p174
tp175
Rp176
sg19
I9
sg20
I10
sbsS'b5d802fd'
p177
(icore
Match
p178
(dp179
g6
(lp180
VU0JBNHJ3X
p181
aVU0J0XLJUD
p182
asg10
(lp183
VU0HTPM4P8
p184
aVU0KA76231
p185
asg14
g15
(S'\x07\xe0\x0c\r\x12\x192\x02\xfd\xb1'
p186
tp187
Rp188
sg19
I7
sg20
I10
sbsS'eef43d2c'
p189
(icore
Match
p190
(dp191
g6
(lp192
VU0J0XLJUD
p193
aVU0J8ETRH7
p194
asg10
(lp195
VU0HTVTLBS
p196
aVU0HTVEJKC
p197
asg14
g15
(S'\x07\xe0\x07\x1d\n.7\x0b\x0f\xa3'
p198
tp199
Rp200
sg19
I10
sg20
I8
sbsS'023eba43'
p201
(icore
Match
p202
(dp203
g6
(lp204
VU0KA76231
p205
aVU0HTRQ5HQ
p206
asg10
(lp207
VU0HTPS3JS
p208
aVU0JBNHJ3X
p209
asg14
g15
(S'\x07\xe0\x0c\x0f\x0e;,\x0c1\xcd'
p210
tp211
Rp212
sg19
I8
sg20
I10
sbsS'0d2a8b6b'
p213
(icore
Match
p214
(dp215
g6
(lp216
VU0J0XLJUD
p217
aVU0HTPS3JS
p218
asg10
(lp219
VU0HTPM4P8
p220
aVU0HTQ6XQQ
p221
asg14
g15
(S'\x07\xe0\x08\x16\x0c\x07\x1e\rn\xfe'
p222
tp223
Rp224
sg19
I6
sg20
I10
sbsS'8f2d131e'
p225
(icore
Match
p226
(dp227
g6
(lp228
VU0KCZ16LT
p229
aVU0HTVTLBS
p230
asg10
(lp231
VU0HTRQ5HQ
p232
aVU0JBNHJ3X
p233
asg14
g15
(S'\x07\xe0\n\x1a\x0f\x08!\x0cy:'
p234
tp235
Rp236
sg19
I10
sg20
I8
sbsS'897df58c'
p237
(icore
Match
p238
(dp239
g6
(lp240
VU21CBD6KX
p241
aVU0JBNHJ3X
p242
asg10
(lp243
VU16DF5LQH
p244
aVU0J8ETRH7
p245
asg14
g15
(S'\x07\xe0\x08\x12\x0e&\x0f\x008\x9c'
p246
tp247
Rp248
sg19
I10
sg20
I9
sbsS'03ab3dda'
p249
(icore
Match
p250
(dp251
g6
(lp252
VU0J13UGAF
p253
aVU0HTVEJKC
p254
asg10
(lp255
VU0KA76231
p256
aVU1CUW4Z7S
p257
asg14
g15
(S'\x07\xe0\t\x14\r!0\x02\xa5B'
p258
tp259
Rp260
sg19
I7
sg20
I10
sbsS'3d762df0'
p261
(icore
Match
p262
(dp263
g6
(lp264
VU0HTSHTR9
p265
aVU0JBNHJ3X
p266
asg10
(lp267
VU0W5T83EK
p268
aVU0J8ETRH7
p269
asg14
g15
(S'\x07\xe0\x07\x0c\x11\x03*\x03\xa5\x9e'
p270
tp271
Rp272
sg19
I10
sg20
I6
sbsS'c364e38a'
p273
(icore
Match
p274
(dp275
g6
(lp276
VU0HTVEJKC
p277
aVU0J8ETRH7
p278
asg10
(lp279
VU0KCZ16LT
p280
aVU0JBNHJ3X
p281
asg14
g15
(S'\x07\xe0\x0c\x16\x11#\x04\x0c\xd2\x9d'
p282
tp283
Rp284
sg19
I10
sg20
I9
sbsS'8acd6993'
p285
(icore
Match
p286
(dp287
g6
(lp288
VU0HTVTLBS
p289
aVU0HTPM4P8
p290
asg10
(lp291
VU0HTPS3JS
p292
aVU0HTVEJKC
p293
asg14
g15
(S'\x07\xe0\x0c\x08\x0b\x1c\x15\x04\xc9\x85'
p294
tp295
Rp296
sg19
I10
sg20
I4
sbsS'bb7f5668'
p297
(icore
Match
p298
(dp299
g6
(lp300
VU1CUW4Z7S
p301
aVU0JBNHJ3X
p302
asg10
(lp303
VU0KA76231
p304
aVU0J8ETRH7
p305
asg14
g15
(S'\x07\xe0\n\x07\r\x18\x1a\x03[\x11'
p306
tp307
Rp308
sg19
I10
sg20
I7
sbsS'782122a5'
p309
(icore
Match
p310
(dp311
g6
(lp312
VU0JBNHJ3X
p313
aVU0HTVEJKC
p314
asg10
(lp315
VU0J8ETRH7
p316
aVU0KCZ16LT
p317
asg14
g15
(S'\x07\xe0\x0c\x16\x11!8\t\xf8\xd3'
p318
tp319
Rp320
sg19
I10
sg20
I4
sbsS'72e2822e'
p321
(icore
Match
p322
(dp323
g6
(lp324
VU17V6C5K6
p325
aVU0J8ETRH7
p326
asg10
(lp327
VU0JBNHJ3X
p328
aVU0KCZ16LT
p329
asg14
g15
(S"\x07\xe0\x07\x1a\x0e\x12\x18\x07\xda'"
p330
tp331
Rp332
sg19
I3
sg20
I10
sbsS'454d3e09'
p333
(icore
Match
p334
(dp335
g6
(lp336
VU0J8ETRH7
p337
aVU0KCZ16LT
p338
asg10
(lp339
VU1CUW4Z7S
p340
aVU0JBNHJ3X
p341
asg14
g15
(S'\x07\xe0\x0b\n\x116\x13\x071\xf8'
p342
tp343
Rp344
sg19
I10
sg20
I8
sbsS'3a40996a'
p345
(icore
Match
p346
(dp347
g6
(lp348
VU0JBNHJ3X
p349
aVU0J8ETRH7
p350
asg10
(lp351
VU0HTPS3JS
p352
aVU0HTVEJKC
p353
asg14
g15
(S'\x07\xe0\x0c\x10\x0c$2\x08\xfc\x17'
p354
tp355
Rp356
sg19
I7
sg20
I10
sbsS'1e064ac9'
p357
(icore
Match
p358
(dp359
g6
(lp360
VU0HTR4KRT
p361
aVU0HTPM4P8
p362
asg10
(lp363
VU0HTSHTR9
p364
aVU0HTVTLBS
p365
asg14
g15
(S'\x07\xe0\x0c\x15\x0b72\x08\xceR'
p366
tp367
Rp368
sg19
I9
sg20
I10
sbsS'd6a941f0'
p369
(icore
Match
p370
(dp371
g6
(lp372
VU0J0XLJUD
p373
aVU0W5T83EK
p374
asg10
(lp375
VU17V6C5K6
p376
aVU0JBNHJ3X
p377
asg14
g15
(S'\x07\xe0\x08\x02\r\x0e\r\x08>['
p378
tp379
Rp380
sg19
I8
sg20
I10
sbsS'9a04fb7d'
p381
(icore
Match
p382
(dp383
g6
(lp384
VU1CUW4Z7S
p385
aVU0KA76231
p386
asg10
(lp387
VU0J8ETRH7
p388
aVU0J13UGAF
p389
asg14
g15
(S'\x07\xe0\t\t\x0f\x157\x02\x19<'
p390
tp391
Rp392
sg19
I5
sg20
I10
sbsS'31a3e13b'
p393
(icore
Match
p394
(dp395
g6
(lp396
VU0HTJ2DK6
p397
aVU0HTVEJKC
p398
asg10
(lp399
VU0HTVTLBS
p400
aVU0HTPM4P8
p401
asg14
g15
(S'\x07\xe0\n\x12\x0e+\t\x0c\xe6\xbe'
p402
tp403
Rp404
sg19
I10
sg20
I7
sbsS'e159fe31'
p405
(icore
Match
p406
(dp407
g6
(lp408
VU0W5T83EK
p409
aVU17V6C5K6
p410
asg10
(lp411
VU0HTPM4P8
p412
aVU0J0XLJUD
p413
asg14
g15
(S'\x07\xe0\x08\x05\x11"$\x0c\xc0S'
p414
tp415
Rp416
sg19
I10
sg20
I1
sbsS'a90a09c5'
p417
(icore
Match
p418
(dp419
g6
(lp420
VU0HTSHTR9
p421
aVU0HTVTLBS
p422
asg10
(lp423
VU0KCZ16LT
p424
aVU0HTR4KRT
p425
asg14
g15
(S'\x07\xe0\x0c\x16\n8#\x00\x93\xd4'
p426
tp427
Rp428
sg19
I10
sg20
I2
sbsS'c2508b86'
p429
(icore
Match
p430
(dp431
g6
(lp432
VU0KA76231
p433
aVU0HTVTLBS
p434
asg10
(lp435
VU0HTVEJKC
p436
aVU0JBNHJ3X
p437
asg14
g15
(S'\x07\xe0\t\x15\r\x142\r\x8f\\'
p438
tp439
Rp440
sg19
I10
sg20
I5
sbsS'4606a6cc'
p441
(icore
Match
p442
(dp443
g6
(lp444
VU0KA76231
p445
aVU0HTPM4P8
p446
asg10
(lp447
VU0HTQJMHN
p448
aVU0JBNHJ3X
p449
asg14
g15
(S'\x07\xe0\x0c\x0c\r\x13-\x0b\xc0%'
p450
tp451
Rp452
sg19
I10
sg20
I9
sbsS'c8cf76cd'
p453
(icore
Match
p454
(dp455
g6
(lp456
VU0HTPM4P8
p457
aVU0J0XLJUD
p458
asg10
(lp459
VU0HTVTLBS
p460
aVU0HTQJMHN
p461
asg14
g15
(S'\x07\xe0\n\n\x103\x0c\x0c\xb5Z'
p462
tp463
Rp464
sg19
I10
sg20
I8
sbsS'e1dd9d80'
p465
(icore
Match
p466
(dp467
g6
(lp468
VU0HTVTLBS
p469
aVU0HTR4KRT
p470
asg10
(lp471
VU0HTSHTR9
p472
aVU0J0XLJUD
p473
asg14
g15
(S'\x07\xe0\n\x1b\x0b\x1c\x0b\x06=\x8c'
p474
tp475
Rp476
sg19
I10
sg20
I6
sbsS'e7e77a9a'
p477
(icore
Match
p478
(dp479
g6
(lp480
VU0HTQ6XQQ
p481
aVU0HTVTLBS
p482
asg10
(lp483
VU0HTVEJKC
p484
aVU0HTSHTR9
p485
asg14
g15
(S'\x07\xe0\t\x13\x0f2\x19\x0c5-'
p486
tp487
Rp488
sg19
I5
sg20
I10
sbsS'618ebbc4'
p489
(icore
Match
p490
(dp491
g6
(lp492
VU0HTPS3JS
p493
aVU0HTVEJKC
p494
asg10
(lp495
VU0HTPM4P8
p496
aVU0HTSHTR9
p497
asg14
g15
(S'\x07\xe0\x0c\x15\x10)5\x0e%\x91'
p498
tp499
Rp500
sg19
I10
sg20
I4
sbsS'6b7db1a1'
p501
(icore
Match
p502
(dp503
g6
(lp504
VU0J8ETRH7
p505
aVU0JBNHJ3X
p506
asg10
(lp507
VU0J13UGAF
p508
aVU0HTRQ5HQ
p509
asg14
g15
(S'\x07\xe0\x07\x16\x0b\x03\r\x05w\xb4'
p510
tp511
Rp512
sg19
I3
sg20
I10
sbsS'6a24eed8'
p513
(icore
Match
p514
(dp515
g6
(lp516
VU0JBNHJ3X
p517
aVU0J8ETRH7
p518
asg10
(lp519
VU0HTVEJKC
p520
aVU0HTSHTR9
p521
asg14
g15
(S'\x07\xe0\x0b\x10\r7\x05\x05\xbe\x89'
p522
tp523
Rp524
sg19
I4
sg20
I10
sbsS'1ce225d6'
p525
(icore
Match
p526
(dp527
g6
(lp528
VU0KA76231
p529
aVU0J8ETRH7
p530
asg10
(lp531
VU1CUW4Z7S
p532
aVU0JBNHJ3X
p533
asg14
g15
(S'\x07\xe0\x0b\x01\x102 \x03\xa1\xc7'
p534
tp535
Rp536
sg19
I10
sg20
I7
sbsS'7511cc49'
p537
(icore
Match
p538
(dp539
g6
(lp540
VU0KCZ16LT
p541
aVU0HTVEJKC
p542
asg10
(lp543
VU0HTVTLBS
p544
aVU0KA76231
p545
asg14
g15
(S'\x07\xe0\n\x1c\x0e\x12\x08\x07@\x01'
p546
tp547
Rp548
sg19
I9
sg20
I10
sbsS'c8849654'
p549
(icore
Match
p550
(dp551
g6
(lp552
VU17V6C5K6
p553
aVU0JBNHJ3X
p554
asg10
(lp555
VU0HTVTLBS
p556
aVU0HTPM4P8
p557
asg14
g15
(S'\x07\xe0\x07\x0f\x10\x08&\r5\x83'
p558
tp559
Rp560
sg19
I6
sg20
I10
sbsS'b95cf08e'
p561
(icore
Match
p562
(dp563
g6
(lp564
VU0HTVTLBS
p565
aVU0HTPS3JS
p566
asg10
(lp567
VU0HTPM4P8
p568
aVU0KCZ16LT
p569
asg14
g15
(S'\x07\xe0\x0c\t\x11-\x17\x04|\xcd'
p570
tp571
Rp572
sg19
I10
sg20
I5
sbsS'4fbbcf35'
p573
(icore
Match
p574
(dp575
g6
(lp576
VU17V6C5K6
p577
aVU0HTQ6XQQ
p578
asg10
(lp579
VU0JBNHJ3X
p580
aVU0W5T83EK
p581
asg14
g15
(S'\x07\xe0\t\x17\x12#\x0c\x06\x81y'
p582
tp583
Rp584
sg19
I10
sg20
I3
sbsS'2760d74b'
p585
(icore
Match
p586
(dp587
g6
(lp588
VU0HTVEJKC
p589
aVU0J8ETRH7
p590
asg10
(lp591
VU0HTPM4P8
p592
aVU0HTPS3JS
p593
asg14
g15
(S'\x07\xe0\x0c\t\x0e\x08 \x0f.R'
p594
tp595
Rp596
sg19
I7
sg20
I10
sbsS'381c35e5'
p597
(icore
Match
p598
(dp599
g6
(lp600
VU0KCZ16LT
p601
aVU0HTVTLBS
p602
asg10
(lp603
VU0HTQJMHN
p604
aVU0HTQ6XQQ
p605
asg14
g15
(S'\x07\xe0\x0c\x0c\x11+.\x06!\xbf'
p606
tp607
Rp608
sg19
I10
sg20
I5
sbsS'1f236b80'
p609
(icore
Match
p610
(dp611
g6
(lp612
VU0J0XLJUD
p613
aVU0JBNHJ3X
p614
asg10
(lp615
VU0HTPS3JS
p616
aVU0HTVEJKC
p617
asg14
g15
(S'\x07\xe0\x07\x0c\x11\x029\x06W\xe3'
p618
tp619
Rp620
sg19
I10
sg20
I9
sbsS'702dd46f'
p621
(icore
Match
p622
(dp623
g6
(lp624
VU0HTVTLBS
p625
aVU0HTQJMHN
p626
asg10
(lp627
VU0KA76231
p628
aVU0J8ETRH7
p629
asg14
g15
(S'\x07\xe0\x0c\x05\x10\x1d"\n\xae\xbf'
p630
tp631
Rp632
sg19
I10
sg20
I7
sbsS'19792dd3'
p633
(icore
Match
p634
(dp635
g6
(lp636
VU0HTPS3JS
p637
aVU0JBNHJ3X
p638
asg10
(lp639
VU0HTPM4P8
p640
aVU0J0XLJUD
p641
asg14
g15
(S'\x07\xe0\x08\x17\x10\x14\x05\x06~\xa3'
p642
tp643
Rp644
sg19
I10
sg20
I6
sbsS'e407222f'
p645
(icore
Match
p646
(dp647
g6
(lp648
VU0HTVTLBS
p649
aVU0HTPM4P8
p650
asg10
(lp651
VU0HTSHTR9
p652
aVU0J0XLJUD
p653
asg14
g15
(S'\x07\xe0\x08\x10\x10/\x1c\x04x\xe3'
p654
tp655
Rp656
sg19
I9
sg20
I10
sbsS'b2b6afe7'
p657
(icore
Match
p658
(dp659
g6
(lp660
VU0HTQJMHN
p661
aVU0HTPM4P8
p662
asg10
(lp663
VU0HTSHTR9
p664
aVU0J0XLJUD
p665
asg14
g15
(S'\x07\xe0\x08\x05\x0e\x19+\x08\xe6\xc9'
p666
tp667
Rp668
sg19
I7
sg20
I10
sbsS'e2813c62'
p669
(icore
Match
p670
(dp671
g6
(lp672
VU1CUW4Z7S
p673
aVU0JBNHJ3X
p674
asg10
(lp675
VU0HTPM4P8
p676
aVU0J8ETRH7
p677
asg14
g15
(S'\x07\xe0\n\x05\x0e,\n\n\xab('
p678
tp679
Rp680
sg19
I7
sg20
I10
sbsS'6a02a621'
p681
(icore
Match
p682
(dp683
g6
(lp684
VU0HTVTLBS
p685
aVU1CUW4Z7S
p686
asg10
(lp687
VU0JBNHJ3X
p688
aVU0HTSHTR9
p689
asg14
g15
(S'\x07\xe0\x07\x1d\x0c/!\x05(K'
p690
tp691
Rp692
sg19
I10
sg20
I7
sbsS'35f1a468'
p693
(icore
Match
p694
(dp695
g6
(lp696
VU0KA76231
p697
aVU0HTPM4P8
p698
asg10
(lp699
VU0J8ETRH7
p700
aVU0JBNHJ3X
p701
asg14
g15
(S'\x07\xe0\x0b\x07\x12\t\x0e\x06\xab\xdb'
p702
tp703
Rp704
sg19
I10
sg20
I8
sbsS'abf87ed4'
p705
(icore
Match
p706
(dp707
g6
(lp708
VU0HTVTLBS
p709
aVU0J8ETRH7
p710
asg10
(lp711
VU0KA76231
p712
aVU1CUW4Z7S
p713
asg14
g15
(S'\x07\xe0\t\x0c\x0f#\x1f\n\xa7z'
p714
tp715
Rp716
sg19
I10
sg20
I1
sbsS'f5016890'
p717
(icore
Match
p718
(dp719
g6
(lp720
VU0JBNHJ3X
p721
aVU0J8ETRH7
p722
asg10
(lp723
VU0KCZ16LT
p724
aVU0J13UGAF
p725
asg14
g15
(S'\x07\xe0\x0b\x17\x0f\x05\x01\x02h\xc8'
p726
tp727
Rp728
sg19
I10
sg20
I8
sbsS'7ccdfe2e'
p729
(icore
Match
p730
(dp731
g6
(lp732
VU0HTRQ5HQ
p733
aVU0J8ETRH7
p734
asg10
(lp735
VU0KA76231
p736
aVU1CUW4Z7S
p737
asg14
g15
(S'\x07\xe0\t\r\x0b!\x05\x0bg\xbb'
p738
tp739
Rp740
sg19
I7
sg20
I10
sbsS'253e377b'
p741
(icore
Match
p742
(dp743
g6
(lp744
VU0KA76231
p745
aVU0HTQ6XQQ
p746
asg10
(lp747
VU0J8ETRH7
p748
aVU0JBNHJ3X
p749
asg14
g15
(S'\x07\xe0\x0c\x10\x0f+)\x0c+5'
p750
tp751
Rp752
sg19
I10
sg20
I5
sbsS'e275f3e5'
p753
(icore
Match
p754
(dp755
g6
(lp756
VU0HTQJMHN
p757
aVU0HTVTLBS
p758
asg10
(lp759
VU0J0XLJUD
p760
aVU0HTQ6XQQ
p761
asg14
g15
(S'\x07\xe0\n\x04\x11\x06\x0e\x0e\xf9\xac'
p762
tp763
Rp764
sg19
I4
sg20
I10
sbsS'ef4e5cc9'
p765
(icore
Match
p766
(dp767
g6
(lp768
VU0HTPS3JS
p769
aVU0HTQJMHN
p770
asg10
(lp771
VU0HTPM4P8
p772
aVU0HTVTLBS
p773
asg14
g15
(S'\x07\xe0\x0c\x15\x12#\x0c\t\xc6\x94'
p774
tp775
Rp776
sg19
I10
sg20
I8
sbsS'aafc53c7'
p777
(icore
Match
p778
(dp779
g6
(lp780
VU0HTVTLBS
p781
aVU0JBNHJ3X
p782
asg10
(lp783
VU0J8ETRH7
p784
aVU0HTPS3JS
p785
asg14
g15
(S'\x07\xe0\x07\r\x0c\x1f\x18\x0c\xc8M'
p786
tp787
Rp788
sg19
I10
sg20
I4
sbsS'e49ffce6'
p789
(icore
Match
p790
(dp791
g6
(lp792
VU0JBNHJ3X
p793
aVU1CUW4Z7S
p794
asg10
(lp795
VU0HTPS3JS
p796
aVU0HTVTLBS
p797
asg14
g15
(S'\x07\xe0\x0c\x17\x0c#\x0f\x0c\xb9\xbc'
p798
tp799
Rp800
sg19
I10
sg20
I9
sbsS'50dfe996'
p801
(icore
Match
p802
(dp803
g6
(lp804
VU1CUW4Z7S
p805
aVU0KA76231
p806
asg10
(lp807
VU0J8ETRH7
p808
aVU0JBNHJ3X
p809
asg14
g15
(S'\x07\xe0\x0b\x0e\r8\t\t/6'
p810
tp811
Rp812
sg19
I10
sg20
I8
sbsS'02639408'
p813
(icore
Match
p814
(dp815
g6
(lp816
VU0KCZ16LT
p817
aVU0JBNHJ3X
p818
asg10
(lp819
VU1CUW4Z7S
p820
aVU0J8ETRH7
p821
asg14
g15
(S'\x07\xe0\n\x11\x0f\x08\x03\x04t\x00'
p822
tp823
Rp824
sg19
I8
sg20
I10
sbsS'a65ae12e'
p825
(icore
Match
p826
(dp827
g6
(lp828
VU0HTPS3JS
p829
aVU0J0XLJUD
p830
asg10
(lp831
VU0HTPM4P8
p832
aVU0HTVEJKC
p833
asg14
g15
(S'\x07\xe0\x0c\x10\x0e\x1b4\r}\xc7'
p834
tp835
Rp836
sg19
I9
sg20
I10
sbsS'677d81b6'
p837
(icore
Match
p838
(dp839
g6
(lp840
VU0HTRQ5HQ
p841
aVU0JBNHJ3X
p842
asg10
(lp843
VU0HTVTLBS
p844
aVU0HTVEJKC
p845
asg14
g15
(S'\x07\xe0\x0c\x16\x10\x13$\r\xaf\x10'
p846
tp847
Rp848
sg19
I10
sg20
I9
sbsS'5ae9177a'
p849
(icore
Match
p850
(dp851
g6
(lp852
VU0HTQJMHN
p853
aVU0HTPS3JS
p854
asg10
(lp855
VU0HTSHTR9
p856
aVU0HTPM4P8
p857
asg14
g15
(S'\x07\xe0\x0c\x14\x10\x06(\t\x08m'
p858
tp859
Rp860
sg19
I9
sg20
I10
sbsS'77c1af9c'
p861
(icore
Match
p862
(dp863
g6
(lp864
VU0HTPS3JS
p865
aVU0HTVTLBS
p866
asg10
(lp867
VU0HTPM4P8
p868
aVU0HTR4KRT
p869
asg14
g15
(S'\x07\xe0\x0c\x15\x0f,\x00\nv\x15'
p870
tp871
Rp872
sg19
I10
sg20
I5
sbsS'557a3fde'
p873
(icore
Match
p874
(dp875
g6
(lp876
VU0HTVTLBS
p877
aVU0HTJ2DK6
p878
asg10
(lp879
VU0HTPM4P8
p880
aVU0JBNHJ3X
p881
asg14
g15
(S'\x07\xe0\n\x11\x0b\x13"\x08:O'
p882
tp883
Rp884
sg19
I10
sg20
I4
sbsS'21ddd67e'
p885
(icore
Match
p886
(dp887
g6
(lp888
VU0J8ETRH7
p889
aVU0JBNHJ3X
p890
asg10
(lp891
VU0J13UGAF
p892
aVU0J0XLJUD
p893
asg14
g15
(S'\x07\xe0\t\x1b\x0b\x03\x0b\x04\xde\xee'
p894
tp895
Rp896
sg19
I6
sg20
I10
sbsS'a40373f8'
p897
(icore
Match
p898
(dp899
g6
(lp900
VU0KA76231
p901
aVU0HTPM4P8
p902
asg10
(lp903
VU0HTVTLBS
p904
aVU0HTQJMHN
p905
asg14
g15
(S'\x07\xe0\x0c\t\x129\r\r\xcb\xde'
p906
tp907
Rp908
sg19
I7
sg20
I10
sbsS'2f73b6e7'
p909
(icore
Match
p910
(dp911
g6
(lp912
VU0KA76231
p913
aVU0HTPM4P8
p914
asg10
(lp915
VU0J8ETRH7
p916
aVU0JBNHJ3X
p917
asg14
g15
(S'\x07\xe0\x0b\x07\x12\t\x12\x02l\xa8'
p918
tp919
Rp920
sg19
I10
sg20
I6
sbsS'465e0227'
p921
(icore
Match
p922
(dp923
g6
(lp924
VU0HTVTLBS
p925
aVU0J0XLJUD
p926
asg10
(lp927
VU0HTPS3JS
p928
aVU0HTSHTR9
p929
asg14
g15
(S'\x07\xe0\n\x1a\x0c#\x0e\t\xf7+'
p930
tp931
Rp932
sg19
I4
sg20
I10
sbsS'c0651c84'
p933
(icore
Match
p934
(dp935
g6
(lp936
VU0KA76231
p937
aVU0HTPM4P8
p938
asg10
(lp939
VU0JBNHJ3X
p940
aVU0HTPS3JS
p941
asg14
g15
(S'\x07\xe0\x0c\r\x12\t2\x0c\x13\x1a'
p942
tp943
Rp944
sg19
I10
sg20
I9
sbsS'5156896b'
p945
(icore
Match
p946
(dp947
g6
(lp948
VU0HTSHTR9
p949
aVU0HTVTLBS
p950
asg10
(lp951
VU0HTR4KRT
p952
aVU0J0XLJUD
p953
asg14
g15
(S'\x07\xe0\x0b\x1c\x0f5\x12\x07\xea\x15'
p954
tp955
Rp956
sg19
I10
sg20
I8
sbsS'9403ad97'
p957
(icore
Match
p958
(dp959
g6
(lp960
VU0HTPM4P8
p961
aVU0HTSHTR9
p962
asg10
(lp963
VU0HTPS3JS
p964
aVU0HTVTLBS
p965
asg14
g15
(S'\x07\xe0\n\x1f\x0c\x11\x11\x0eO9'
p966
tp967
Rp968
sg19
I10
sg20
I9
sbsS'b6dff321'
p969
(icore
Match
p970
(dp971
g6
(lp972
VU0HTQJMHN
p973
aVU0HTPS3JS
p974
asg10
(lp975
VU0J8ETRH7
p976
aVU0JBNHJ3X
p977
asg14
g15
(S'\x07\xe0\x0c\x0f\x12-\x05\x02R8'
p978
tp979
Rp980
sg19
I10
sg20
I7
sbsS'a9b5d90f'
p981
(icore
Match
p982
(dp983
g6
(lp984
VU0HTPS3JS
p985
aVU0HTVTLBS
p986
asg10
(lp987
VU0HTPM4P8
p988
aVU0HTR4KRT
p989
asg14
g15
(S'\x07\xe0\x0c\x15\x0f,\x08\x02\xf3E'
p990
tp991
Rp992
sg19
I10
sg20
I3
sbsS'abb17562'
p993
(icore
Match
p994
(dp995
g6
(lp996
VU0KA76231
p997
aVU1CUW4Z7S
p998
asg10
(lp999
VU0J8ETRH7
p1000
aVU0J13UGAF
p1001
asg14
g15
(S'\x07\xe0\t\x1e\r\x0e&\x0b\xc1Y'
p1002
tp1003
Rp1004
sg19
I10
sg20
I2
sbsS'765f20ec'
p1005
(icore
Match
p1006
(dp1007
g6
(lp1008
VU0J13UGAF
p1009
aVU0JBNHJ3X
p1010
asg10
(lp1011
VU0HTPM4P8
p1012
aVU0J0XLJUD
p1013
asg14
g15
(S'\x07\xe0\n\x13\x102\n\t\xd7\xd7'
p1014
tp1015
Rp1016
sg19
I7
sg20
I10
sbsS'f0cd5702'
p1017
(icore
Match
p1018
(dp1019
g6
(lp1020
VU0J8ETRH7
p1021
aVU0HTVTLBS
p1022
asg10
(lp1023
VU0HTSHTR9
p1024
aVU0JBNHJ3X
p1025
asg14
g15
(S'\x07\xe0\x07\x12\x10.\x0b\x0e\xf6\xe8'
p1026
tp1027
Rp1028
sg19
I10
sg20
I9
sbsS'4702f3d4'
p1029
(icore
Match
p1030
(dp1031
g6
(lp1032
VU0HTPS3JS
p1033
aVU0HTVEJKC
p1034
asg10
(lp1035
VU0HTJ2DK6
p1036
aVU0J0XLJUD
p1037
asg14
g15
(S'\x07\xe0\x07\x1c\x0b\x1a\x17\nY\xa6'
p1038
tp1039
Rp1040
sg19
I5
sg20
I10
sbsS'426b43b6'
p1041
(icore
Match
p1042
(dp1043
g6
(lp1044
VU0J8ETRH7
p1045
aVU0J0XLJUD
p1046
asg10
(lp1047
VU0HTQJMHN
p1048
aVU0JBNHJ3X
p1049
asg14
g15
(S'\x07\xe0\x08\x1a\x0b$;\x00n\xb5'
p1050
tp1051
Rp1052
sg19
I10
sg20
I5
sbsS'df41223b'
p1053
(icore
Match
p1054
(dp1055
g6
(lp1056
VU0HTVTLBS
p1057
aVU0JBNHJ3X
p1058
asg10
(lp1059
VU0HTSHTR9
p1060
aVU0HTVEJKC
p1061
asg14
g15
(S'\x07\xe0\x07\x19\x0c\x11\x07\x0e\x83x'
p1062
tp1063
Rp1064
sg19
I10
sg20
I6
sbsS'f66b8d32'
p1065
(icore
Match
p1066
(dp1067
g6
(lp1068
VU0J0XLJUD
p1069
aVU1CUW4Z7S
p1070
asg10
(lp1071
VU0KA76231
p1072
aVU0J8ETRH7
p1073
asg14
g15
(S'\x07\xe0\t\x10\x0c\x11\x1f\x00\xe5N'
p1074
tp1075
Rp1076
sg19
I8
sg20
I10
sbsS'a9eb1a54'
p1077
(icore
Match
p1078
(dp1079
g6
(lp1080
VU0HTSHTR9
p1081
aVU0HTR4KRT
p1082
asg10
(lp1083
VU0HTVTLBS
p1084
aVU0HTJ2DK6
p1085
asg14
g15
(S'\x07\xe0\x0b\x1d\r\x11*\x04\x9bk'
p1086
tp1087
Rp1088
sg19
I10
sg20
I6
sbsS'cd42acd8'
p1089
(icore
Match
p1090
(dp1091
g6
(lp1092
VU0J8ETRH7
p1093
aVU0KA76231
p1094
asg10
(lp1095
VU0HTSHTR9
p1096
aVU0JBNHJ3X
p1097
asg14
g15
(S'\x07\xe0\x0b\x07\x0e\x17\x0f\x06\x1a\x81'
p1098
tp1099
Rp1100
sg19
I10
sg20
I7
sbsS'6e6137d2'
p1101
(icore
Match
p1102
(dp1103
g6
(lp1104
VU0J0XLJUD
p1105
aVU0W5T83EK
p1106
asg10
(lp1107
VU0HTPM4P8
p1108
aVU0JBNHJ3X
p1109
asg14
g15
(S'\x07\xe0\n\x13\x0e75\x06\xc8\x19'
p1110
tp1111
Rp1112
sg19
I5
sg20
I10
sbsS'd1225054'
p1113
(icore
Match
p1114
(dp1115
g6
(lp1116
VU1CUW4Z7S
p1117
aVU0KCZ16LT
p1118
asg10
(lp1119
VU0J8ETRH7
p1120
aVU0JBNHJ3X
p1121
asg14
g15
(S'\x07\xe0\t\x1c\x0c\x0c\x1d\x00\x940'
p1122
tp1123
Rp1124
sg19
I10
sg20
I5
sbsS'10ec0941'
p1125
(icore
Match
p1126
(dp1127
g6
(lp1128
VU1CUW4Z7S
p1129
aVU0J8ETRH7
p1130
asg10
(lp1131
VU0J13UGAF
p1132
aVU0KA76231
p1133
asg14
g15
(S'\x07\xe0\t\x1a\x0f\x14\x07\nt#'
p1134
tp1135
Rp1136
sg19
I7
sg20
I10
sbsS'd07ce6b0'
p1137
(icore
Match
p1138
(dp1139
g6
(lp1140
VU0HTPM4P8
p1141
aVU0HTSHTR9
p1142
asg10
(lp1143
VU0J0XLJUD
p1144
aVU0HTPS3JS
p1145
asg14
g15
(S'\x07\xe0\x08\n\x0c\x080\x0c\xca\x81'
p1146
tp1147
Rp1148
sg19
I10
sg20
I5
sbsS'2c65ca16'
p1149
(icore
Match
p1150
(dp1151
g6
(lp1152
VU0J0XLJUD
p1153
aVU0HTPM4P8
p1154
asg10
(lp1155
VU0HTSHTR9
p1156
aVU0HTRQ5HQ
p1157
asg14
g15
(S'\x07\xe0\x08\x0f\x10\x04\x1c\n\xa6\xf2'
p1158
tp1159
Rp1160
sg19
I10
sg20
I6
sbsS'7116a771'
p1161
(icore
Match
p1162
(dp1163
g6
(lp1164
VU0J0XLJUD
p1165
aVU0HTQ6XQQ
p1166
asg10
(lp1167
VU0HTQJMHN
p1168
aVU0HTJ2DK6
p1169
asg14
g15
(S'\x07\xe0\x0c\x05\x12\x190\r\xea\x1e'
p1170
tp1171
Rp1172
sg19
I5
sg20
I10
sbsS'd3a4d965'
p1173
(icore
Match
p1174
(dp1175
g6
(lp1176
VU0HTVEJKC
p1177
aVU0J8ETRH7
p1178
asg10
(lp1179
VU0HTQJMHN
p1180
aVU0JBNHJ3X
p1181
asg14
g15
(S'\x07\xe0\x0b\x1d\x0f\x1b\x19\x04\x0b\xf5'
p1182
tp1183
Rp1184
sg19
I8
sg20
I10
sbsS'2bdac3d0'
p1185
(icore
Match
p1186
(dp1187
g6
(lp1188
VU0JBNHJ3X
p1189
aVU0J0XLJUD
p1190
asg10
(lp1191
VU0KA76231
p1192
aVU0J13UGAF
p1193
asg14
g15
(S'\x07\xe0\n\x19\r3\x1d\x00\n\xf3'
p1194
tp1195
Rp1196
sg19
I10
sg20
I8
sbsS'4c2bc98c'
p1197
(icore
Match
p1198
(dp1199
g6
(lp1200
VU0HTQJMHN
p1201
aVU0HTQ6XQQ
p1202
asg10
(lp1203
VU0J0XLJUD
p1204
aVU0HTJ2DK6
p1205
asg14
g15
(S'\x07\xe0\x0b\x15\x11:\n\x0c\x08K'
p1206
tp1207
Rp1208
sg19
I7
sg20
I10
sbsS'1df3e7dd'
p1209
(icore
Match
p1210
(dp1211
g6
(lp1212
VU0HTPM4P8
p1213
aVU0HTPS3JS
p1214
asg10
(lp1215
VU0HTSHTR9
p1216
aVU0HTVEJKC
p1217
asg14
g15
(S'\x07\xe0\x0c\x02\x0e\x1a5\x06\xb2\xb5'
p1218
tp1219
Rp1220
sg19
I10
sg20
I3
sbsS'0ffec037'
p1221
(icore
Match
p1222
(dp1223
g6
(lp1224
VU1CUW4Z7S
p1225
aVU0KA76231
p1226
asg10
(lp1227
VU0HTSHTR9
p1228
aVU0JBNHJ3X
p1229
asg14
g15
(S'\x07\xe0\x0b\x1c\x11\x1a\x05\x0b\xc7\x8e'
p1230
tp1231
Rp1232
sg19
I10
sg20
I9
sbsS'7feded10'
p1233
(icore
Match
p1234
(dp1235
g6
(lp1236
VU0J0XLJUD
p1237
aVU0HTSHTR9
p1238
asg10
(lp1239
VU0HTVEJKC
p1240
aVU0HTJ2DK6
p1241
asg14
g15
(S'\x07\xe0\x08\x01\x0c1\n\x04v\x9a'
p1242
tp1243
Rp1244
sg19
I10
sg20
I8
sbsS'8cd0e0a5'
p1245
(icore
Match
p1246
(dp1247
g6
(lp1248
VU0HTPS3JS
p1249
aVU0J8ETRH7
p1250
asg10
(lp1251
VU0J0XLJUD
p1252
aVU0HTPM4P8
p1253
asg14
g15
(S'\x07\xe0\x0c\x14\r5\x1e\rHA'
p1254
tp1255
Rp1256
sg19
I10
sg20
I8
sbsS'd76eebbd'
p1257
(icore
Match
p1258
(dp1259
g6
(lp1260
VU0HTSHTR9
p1261
aVU0J0XLJUD
p1262
asg10
(lp1263
VU0HTPM4P8
p1264
aVU0JBNHJ3X
p1265
asg14
g15
(S'\x07\xe0\x0c\x07\x11$\x0e\x00\xd7\xe7'
p1266
tp1267
Rp1268
sg19
I8
sg20
I10
sbsS'5fc53fe8'
p1269
(icore
Match
p1270
(dp1271
g6
(lp1272
VU0HTQJMHN
p1273
aVU0HTPM4P8
p1274
asg10
(lp1275
VU0HTQ6XQQ
p1276
aVU0HTVEJKC
p1277
asg14
g15
(S'\x07\xe0\x0c\x0f\x111!\t^Y'
p1278
tp1279
Rp1280
sg19
I6
sg20
I10
sbsS'd1fdbf22'
p1281
(icore
Match
p1282
(dp1283
g6
(lp1284
VU0HTSHTR9
p1285
aVU0J8ETRH7
p1286
asg10
(lp1287
VU0KCZ16LT
p1288
aVU0KA76231
p1289
asg14
g15
(S'\x07\xe0\t\x1e\x0e\x1b,\t\x07\xd4'
p1290
tp1291
Rp1292
sg19
I10
sg20
I9
sbsS'e499659b'
p1293
(icore
Match
p1294
(dp1295
g6
(lp1296
VU0HTJ2DK6
p1297
aVU0HTR4KRT
p1298
asg10
(lp1299
VU0HTVTLBS
p1300
aVU0HTQJMHN
p1301
asg14
g15
(S'\x07\xe0\n\n\r5\x07\x05+\xc1'
p1302
tp1303
Rp1304
sg19
I10
sg20
I1
sbsS'ec58c29e'
p1305
(icore
Match
p1306
(dp1307
g6
(lp1308
VU0JBNHJ3X
p1309
aVU0HTVTLBS
p1310
asg10
(lp1311
VU0HTPM4P8
p1312
aVU0HTPS3JS
p1313
asg14
g15
(S'\x07\xe0\x08\x16\n#-\r\xcf\xe7'
p1314
tp1315
Rp1316
sg19
I6
sg20
I10
sbsS'0b6c51b2'
p1317
(icore
Match
p1318
(dp1319
g6
(lp1320
VU0HTR4KRT
p1321
aVU0J0XLJUD
p1322
asg10
(lp1323
VU0HTQJMHN
p1324
aVU0HTSHTR9
p1325
asg14
g15
(S'\x07\xe0\x0c\x0f\x11\x07!\x0c\x14J'
p1326
tp1327
Rp1328
sg19
I7
sg20
I10
sbsS'f50377f8'
p1329
(icore
Match
p1330
(dp1331
g6
(lp1332
VU0HTSHTR9
p1333
aVU0HTQ6XQQ
p1334
asg10
(lp1335
VU0HTQJMHN
p1336
aVU0JBNHJ3X
p1337
asg14
g15
(S"\x07\xe0\x08\x0c\x0c\x00\x14\x03'U"
p1338
tp1339
Rp1340
sg19
I10
sg20
I2
sbsS'bc3158cb'
p1341
(icore
Match
p1342
(dp1343
g6
(lp1344
VU1CUW4Z7S
p1345
aVU0HTPM4P8
p1346
asg10
(lp1347
VU0KA76231
p1348
aVU0J8ETRH7
p1349
asg14
g15
(S'\x07\xe0\n\x1c\x10\x05\x02\x08\x16\xc8'
p1350
tp1351
Rp1352
sg19
I10
sg20
I7
sbsS'c55777d0'
p1353
(icore
Match
p1354
(dp1355
g6
(lp1356
VU0W5T83EK
p1357
aVU0JBNHJ3X
p1358
asg10
(lp1359
VU1CUW4Z7S
p1360
aVU0J8ETRH7
p1361
asg14
g15
(S'\x07\xe0\x07\x15\x0e"1\x07R\x19'
p1362
tp1363
Rp1364
sg19
I10
sg20
I8
sbsS'c6ec6573'
p1365
(icore
Match
p1366
(dp1367
g6
(lp1368
VU0HTJ2DK6
p1369
aVU0HTSHTR9
p1370
asg10
(lp1371
VU0HTPM4P8
p1372
aVU0HTVTLBS
p1373
asg14
g15
(S'\x07\xe0\n\x07\x0b6\x01\x04_='
p1374
tp1375
Rp1376
sg19
I10
sg20
I2
sbsS'bc2f5638'
p1377
(icore
Match
p1378
(dp1379
g6
(lp1380
VU0HTPM4P8
p1381
aVU0HTSHTR9
p1382
asg10
(lp1383
VU0HTQJMHN
p1384
aVU0HTVEJKC
p1385
asg14
g15
(S'\x07\xe0\x08\x0b\x104\x00\x00\xfe\x7f'
p1386
tp1387
Rp1388
sg19
I10
sg20
I2
sbsS'7d65d86e'
p1389
(icore
Match
p1390
(dp1391
g6
(lp1392
VU0J8ETRH7
p1393
aVU0JBNHJ3X
p1394
asg10
(lp1395
VU0HTVEJKC
p1396
aVU0KCZ16LT
p1397
asg14
g15
(S'\x07\xe0\x0c\x16\x11"!\x00\x0e\xb7'
p1398
tp1399
Rp1400
sg19
I8
sg20
I10
sbsS'e21a0aa6'
p1401
(icore
Match
p1402
(dp1403
g6
(lp1404
VU0HTPM4P8
p1405
aVU0HTJ2DK6
p1406
asg10
(lp1407
VU0HTSHTR9
p1408
aVU0HTVEJKC
p1409
asg14
g15
(S'\x07\xe0\x0b\x16\x0f\x06*\n}]'
p1410
tp1411
Rp1412
sg19
I10
sg20
I2
sbsS'52086f66'
p1413
(icore
Match
p1414
(dp1415
g6
(lp1416
VU07V0F5AS
p1417
aVU0JBNHJ3X
p1418
asg10
(lp1419
VU0HTRQ5HQ
p1420
aVU0KCZ16LT
p1421
asg14
g15
(S"\x07\xe0\x08\x0f\x0c\x1d\x1b\x06'@"
p1422
tp1423
Rp1424
sg19
I10
sg20
I8
sbsS'387fa9d8'
p1425
(icore
Match
p1426
(dp1427
g6
(lp1428
VU0HTPS3JS
p1429
aVU0KA76231
p1430
asg10
(lp1431
VU0KCZ16LT
p1432
aVU0HTJ2DK6
p1433
asg14
g15
(S'\x07\xe0\x0b\x0f\x11-\t\x00\xf3\x8b'
p1434
tp1435
Rp1436
sg19
I6
sg20
I10
sbsS'fd42c977'
p1437
(icore
Match
p1438
(dp1439
g6
(lp1440
VU0HTVTLBS
p1441
aVU0J0XLJUD
p1442
asg10
(lp1443
VU0HTQJMHN
p1444
aVU0HTR4KRT
p1445
asg14
g15
(S'\x07\xe0\x0c\x05\x0e\x1c9\x07\x8b\xc2'
p1446
tp1447
Rp1448
sg19
I10
sg20
I6
sbsS'ff744f3d'
p1449
(icore
Match
p1450
(dp1451
g6
(lp1452
VU0HTVEJKC
p1453
aVU0HTJ2DK6
p1454
asg10
(lp1455
VU0J0XLJUD
p1456
aVU0HTPS3JS
p1457
asg14
g15
(S'\x07\xe0\t\x06\n\x1f3\x0cz\x80'
p1458
tp1459
Rp1460
sg19
I7
sg20
I10
sbsS'89ce0481'
p1461
(icore
Match
p1462
(dp1463
g6
(lp1464
VU17V6C5K6
p1465
aVU0J13UGAF
p1466
asg10
(lp1467
VU0J8ETRH7
p1468
aVU0JBNHJ3X
p1469
asg14
g15
(S'\x07\xe0\x07\x1a\x11\x07\x19\x06\xdd\x93'
p1470
tp1471
Rp1472
sg19
I10
sg20
I7
sbsS'421ecefd'
p1473
(icore
Match
p1474
(dp1475
g6
(lp1476
VU0HTVTLBS
p1477
aVU0HTJ2DK6
p1478
asg10
(lp1479
VU0HTSHTR9
p1480
aVU0HTVEJKC
p1481
asg14
g15
(S'\x07\xe0\n\x05\x0f\x03\x05\x01\x8d\x83'
p1482
tp1483
Rp1484
sg19
I8
sg20
I10
sbsS'9723ebfb'
p1485
(icore
Match
p1486
(dp1487
g6
(lp1488
VU17V6C5K6
p1489
aVU0J8ETRH7
p1490
asg10
(lp1491
VU0KA76231
p1492
aVU1CUW4Z7S
p1493
asg14
g15
(S'\x07\xe0\n\x13\r;-\x02\xf0]'
p1494
tp1495
Rp1496
sg19
I10
sg20
I6
sbsS'ba12a2bb'
p1497
(icore
Match
p1498
(dp1499
g6
(lp1500
VU0HTSHTR9
p1501
aVU0J0XLJUD
p1502
asg10
(lp1503
VU0HTPM4P8
p1504
aVU0KA76231
p1505
asg14
g15
(S'\x07\xe0\x0b\x18\x0c\x02:\n\xffT'
p1506
tp1507
Rp1508
sg19
I10
sg20
I4
sbsS'2ec6e6c5'
p1509
(icore
Match
p1510
(dp1511
g6
(lp1512
VU0HTPS3JS
p1513
aVU0J0XLJUD
p1514
asg10
(lp1515
VU0HTPM4P8
p1516
aVU0KA76231
p1517
asg14
g15
(S'\x07\xe0\x0c\t\x10.4\x06\xb1k'
p1518
tp1519
Rp1520
sg19
I8
sg20
I10
sbsS'281fb8d5'
p1521
(icore
Match
p1522
(dp1523
g6
(lp1524
VU0J8ETRH7
p1525
aVU0HTVEJKC
p1526
asg10
(lp1527
VU0J0XLJUD
p1528
aVU0HTPUK8R
p1529
asg14
g15
(S'\x07\xe0\x0b\x19\x11+5\x06\x15\x9d'
p1530
tp1531
Rp1532
sg19
I7
sg20
I10
sbsS'7117e136'
p1533
(icore
Match
p1534
(dp1535
g6
(lp1536
VU0HTVTLBS
p1537
aVU0JBNHJ3X
p1538
asg10
(lp1539
VU0KA76231
p1540
aVU0HTVEJKC
p1541
asg14
g15
(S'\x07\xe0\x0b\x1c\x11);\x04\x01\xc1'
p1542
tp1543
Rp1544
sg19
I7
sg20
I10
sbsS'a8c6293d'
p1545
(icore
Match
p1546
(dp1547
g6
(lp1548
VU0HTPUK8R
p1549
aVU0HTRQ5HQ
p1550
asg10
(lp1551
VU0KA76231
p1552
aVU0JBNHJ3X
p1553
asg14
g15
(S"\x07\xe0\x0b\x12\n:\x05\x07\xf0'"
p1554
tp1555
Rp1556
sg19
I10
sg20
I4
sbsS'16f94188'
p1557
(icore
Match
p1558
(dp1559
g6
(lp1560
VU0HTVTLBS
p1561
aVU0HTPM4P8
p1562
asg10
(lp1563
VU0HTSHTR9
p1564
aVU0HTVEJKC
p1565
asg14
g15
(S'\x07\xe0\x08\x12\r 7\x07_\xbd'
p1566
tp1567
Rp1568
sg19
I10
sg20
I5
sbsS'5fa09c2d'
p1569
(icore
Match
p1570
(dp1571
g6
(lp1572
VU0JBNHJ3X
p1573
aVU0HTJ2DK6
p1574
asg10
(lp1575
VU0HTVTLBS
p1576
aVU0HTQJMHN
p1577
asg14
g15
(S'\x07\xe0\x08\x18\x1020\x0b\xc8\xe7'
p1578
tp1579
Rp1580
sg19
I10
sg20
I7
sbsS'ca0deadd'
p1581
(icore
Match
p1582
(dp1583
g6
(lp1584
VU0JBNHJ3X
p1585
aVU1CUW4Z7S
p1586
asg10
(lp1587
VU0HTVTLBS
p1588
aVU07V0F5AS
p1589
asg14
g15
(S'\x07\xe0\x07\x1b\r3\x1e\x03v\x98'
p1590
tp1591
Rp1592
sg19
I10
sg20
I8
sbsS'7616f187'
p1593
(icore
Match
p1594
(dp1595
g6
(lp1596
VU0HTVTLBS
p1597
aVU0HTR4KRT
p1598
asg10
(lp1599
VU0HTSHTR9
p1600
aVU0HTPM4P8
p1601
asg14
g15
(S"\x07\xe0\x0b\x04\r#*\r#'"
p1602
tp1603
Rp1604
sg19
I10
sg20
I7
sbsS'38c2f154'
p1605
(icore
Match
p1606
(dp1607
g6
(lp1608
VU0KCZ16LT
p1609
aVU0HTJ2DK6
p1610
asg10
(lp1611
VU0HTSHTR9
p1612
aVU0JBNHJ3X
p1613
asg14
g15
(S'\x07\xe0\x0b\x15\x11\x1b\x05\x03\xfa\xea'
p1614
tp1615
Rp1616
sg19
I10
sg20
I3
sbsS'f439bdef'
p1617
(icore
Match
p1618
(dp1619
g6
(lp1620
VU0KA76231
p1621
aVU0HTSHTR9
p1622
asg10
(lp1623
VU0HTPM4P8
p1624
aVU0HTR4KRT
p1625
asg14
g15
(S'\x07\xe0\n\x1b\r3\x06\r~\xc5'
p1626
tp1627
Rp1628
sg19
I9
sg20
I10
sbsS'29095211'
p1629
(icore
Match
p1630
(dp1631
g6
(lp1632
VU0HTVTLBS
p1633
aVU0HTQ6XQQ
p1634
asg10
(lp1635
VU0J0XLJUD
p1636
aVU0KCZ16LT
p1637
asg14
g15
(S'\x07\xe0\x08\x1e\r\x03\x12\nr-'
p1638
tp1639
Rp1640
sg19
I9
sg20
I10
sbsS'19345817'
p1641
(icore
Match
p1642
(dp1643
g6
(lp1644
VU0KCZ16LT
p1645
aVU0JBNHJ3X
p1646
asg10
(lp1647
VU0HTVEJKC
p1648
aVU0HTJ2DK6
p1649
asg14
g15
(S'\x07\xe0\x0b\x12\x0f78\x04\xe3\x17'
p1650
tp1651
Rp1652
sg19
I6
sg20
I10
sbsS'c761abbc'
p1653
(icore
Match
p1654
(dp1655
g6
(lp1656
VU0KA76231
p1657
aVU1CUW4Z7S
p1658
asg10
(lp1659
VU0J8ETRH7
p1660
aVU0J13UGAF
p1661
asg14
g15
(S'\x07\xe0\n\x04\x1004\x02b1'
p1662
tp1663
Rp1664
sg19
I6
sg20
I10
sbsS'84fa875a'
p1665
(icore
Match
p1666
(dp1667
g6
(lp1668
VU0J8ETRH7
p1669
aVU0JBNHJ3X
p1670
asg10
(lp1671
VU0KA76231
p1672
aVU1CUW4Z7S
p1673
asg14
g15
(S'\x07\xe0\n\x07\n\x0c\x17\x04%k'
p1674
tp1675
Rp1676
sg19
I7
sg20
I10
sbsS'a25cd2f9'
p1677
(icore
Match
p1678
(dp1679
g6
(lp1680
VU0KA76231
p1681
aVU0HTPM4P8
p1682
asg10
(lp1683
VU0JBNHJ3X
p1684
aVU0J8ETRH7
p1685
asg14
g15
(S'\x07\xe0\x0b\x11\x11\x1b\x11\x0b\xc1\xa3'
p1686
tp1687
Rp1688
sg19
I10
sg20
I5
sbsS'a61c676c'
p1689
(icore
Match
p1690
(dp1691
g6
(lp1692
VU0J13UGAF
p1693
aVU0KA76231
p1694
asg10
(lp1695
VU0HTVEJKC
p1696
aVU0HTPS3JS
p1697
asg14
g15
(S'\x07\xe0\t\x1c\x11\x0e\x05\x0e\xfa\x1b'
p1698
tp1699
Rp1700
sg19
I8
sg20
I10
sbsS'eb0438a2'
p1701
(icore
Match
p1702
(dp1703
g6
(lp1704
VU0HTVEJKC
p1705
aVU0J8ETRH7
p1706
asg10
(lp1707
VU0JBNHJ3X
p1708
aVU0KCZ16LT
p1709
asg14
g15
(S'\x07\xe0\n\x14\x0e1\x19\t\xea\xb2'
p1710
tp1711
Rp1712
sg19
I0
sg20
I10
sbsS'0bbabe78'
p1713
(icore
Match
p1714
(dp1715
g6
(lp1716
VU0J13UGAF
p1717
aVU0J0XLJUD
p1718
asg10
(lp1719
VU0HTQJMHN
p1720
aVU0HTRQ5HQ
p1721
asg14
g15
(S'\x07\xe0\x07\x14\x110,\x04\x87['
p1722
tp1723
Rp1724
sg19
I9
sg20
I10
sbsS'd78ba9c6'
p1725
(icore
Match
p1726
(dp1727
g6
(lp1728
VU1CUW4Z7S
p1729
aVU0JBNHJ3X
p1730
asg10
(lp1731
VU0KA76231
p1732
aVU0J8ETRH7
p1733
asg14
g15
(S'\x07\xe0\t\x1d\r\r\x05\r\xc3V'
p1734
tp1735
Rp1736
sg19
I10
sg20
I3
sbsS'a310f07e'
p1737
(icore
Match
p1738
(dp1739
g6
(lp1740
VU0HTQJMHN
p1741
aVU0HTPS3JS
p1742
asg10
(lp1743
VU0HTPM4P8
p1744
aVU0HTSHTR9
p1745
asg14
g15
(S'\x07\xe0\n\x1f\x10\x03\x05\x05\xcf\x9b'
p1746
tp1747
Rp1748
sg19
I7
sg20
I10
sbsS'09b84e7e'
p1749
(icore
Match
p1750
(dp1751
g6
(lp1752
VU0KA76231
p1753
aVU0J8ETRH7
p1754
asg10
(lp1755
VU1CUW4Z7S
p1756
aVU0JBNHJ3X
p1757
asg14
g15
(S'\x07\xe0\n\x06\x0c&.\x07\x9c\xe2'
p1758
tp1759
Rp1760
sg19
I5
sg20
I10
sbsS'8002973c'
p1761
(icore
Match
p1762
(dp1763
g6
(lp1764
VU0J0XLJUD
p1765
aVU0HTPS3JS
p1766
asg10
(lp1767
VU0HTPM4P8
p1768
aVU0HTQ6XQQ
p1769
asg14
g15
(S'\x07\xe0\x08\x16\x0c\x07\x14\x0cq}'
p1770
tp1771
Rp1772
sg19
I7
sg20
I10
sbsS'50c1202e'
p1773
(icore
Match
p1774
(dp1775
g6
(lp1776
VU0HTVEJKC
p1777
aVU0J0XLJUD
p1778
asg10
(lp1779
VU0HTSHTR9
p1780
aVU0HTPM4P8
p1781
asg14
g15
(S'\x07\xe0\n\x18\x0c5\x06\x04\xaf\x12'
p1782
tp1783
Rp1784
sg19
I4
sg20
I10
sbsS'cbc3d6e0'
p1785
(icore
Match
p1786
(dp1787
g6
(lp1788
VU0W5T83EK
p1789
aVU0HTRQ5HQ
p1790
asg10
(lp1791
VU0HTQ6XQQ
p1792
aVU0HTVTLBS
p1793
asg14
g15
(S'\x07\xe0\x08\x1a\x11"\x08\n,\xac'
p1794
tp1795
Rp1796
sg19
I1
sg20
I10
sbsS'4a603010'
p1797
(icore
Match
p1798
(dp1799
g6
(lp1800
VU0HTPUK8R
p1801
aVU0HTVEJKC
p1802
asg10
(lp1803
VU0J0XLJUD
p1804
aVU0JBNHJ3X
p1805
asg14
g15
(S'\x07\xe0\t\x10\x10\x05\x13\x03\xf3\xd7'
p1806
tp1807
Rp1808
sg19
I4
sg20
I10
sbsS'adeec787'
p1809
(icore
Match
p1810
(dp1811
g6
(lp1812
VU0KCZ16LT
p1813
aVU07V0F5AS
p1814
asg10
(lp1815
VU0KA76231
p1816
aVU0JBNHJ3X
p1817
asg14
g15
(S'\x07\xe0\x0b\x07\x0f;&\n\xe7\xf6'
p1818
tp1819
Rp1820
sg19
I10
sg20
I7
sbsS'95a641ac'
p1821
(icore
Match
p1822
(dp1823
g6
(lp1824
VU1CUW4Z7S
p1825
aVU0HTVTLBS
p1826
asg10
(lp1827
VU0J8ETRH7
p1828
aVU0HTSHTR9
p1829
asg14
g15
(S'\x07\xe0\x07\x1a\n\x03\x17\x00\xb7\x15'
p1830
tp1831
Rp1832
sg19
I10
sg20
I2
sbsS'd80c8ee0'
p1833
(icore
Match
p1834
(dp1835
g6
(lp1836
VU0HTQ6XQQ
p1837
aVU0HTPS3JS
p1838
asg10
(lp1839
VU0J0XLJUD
p1840
aVU0HTPM4P8
p1841
asg14
g15
(S'\x07\xe0\x0c\x10\x0b40\x0b\xe7]'
p1842
tp1843
Rp1844
sg19
I10
sg20
I4
sbsS'e35f8461'
p1845
(icore
Match
p1846
(dp1847
g6
(lp1848
VU0HTVEJKC
p1849
aVU0KA76231
p1850
asg10
(lp1851
VU0HTSHTR9
p1852
aVU0JBNHJ3X
p1853
asg14
g15
(S'\x07\xe0\x0c\r\x0c36\t\xe0\x9c'
p1854
tp1855
Rp1856
sg19
I8
sg20
I10
sbsS'd2e2742f'
p1857
(icore
Match
p1858
(dp1859
g6
(lp1860
VU0W5T83EK
p1861
aVU17V6C5K6
p1862
asg10
(lp1863
VU0JBNHJ3X
p1864
aVU0HTQ6XQQ
p1865
asg14
g15
(S'\x07\xe0\t\x17\x12"6\t"V'
p1866
tp1867
Rp1868
sg19
I10
sg20
I6
sbsS'ac25f183'
p1869
(icore
Match
p1870
(dp1871
g6
(lp1872
VU0HTVEJKC
p1873
aVU0J0XLJUD
p1874
asg10
(lp1875
VU0HTQJMHN
p1876
aVU0HTVTLBS
p1877
asg14
g15
(S'\x07\xe0\t\x05\x0e8:\t.\xb2'
p1878
tp1879
Rp1880
sg19
I10
sg20
I7
sbsS'84b967ec'
p1881
(icore
Match
p1882
(dp1883
g6
(lp1884
VU0HTR4KRT
p1885
aVU0HTVTLBS
p1886
asg10
(lp1887
VU0HTPM4P8
p1888
aVU0HTQJMHN
p1889
asg14
g15
(S'\x07\xe0\x0b\x08\x0c\x182\r\xd6\xd0'
p1890
tp1891
Rp1892
sg19
I10
sg20
I1
sbsS'a5f13ea0'
p1893
(icore
Match
p1894
(dp1895
g6
(lp1896
VU0HTPS3JS
p1897
aVU17V6C5K6
p1898
asg10
(lp1899
VU0J8ETRH7
p1900
aVU0HTRQ5HQ
p1901
asg14
g15
(S"\x07\xe0\x07\x16\x0f'\n\r\xde\x7f"
p1902
tp1903
Rp1904
sg19
I10
sg20
I8
sbsS'ddf01c3e'
p1905
(icore
Match
p1906
(dp1907
g6
(lp1908
VU0W5T83EK
p1909
aVU0JBNHJ3X
p1910
asg10
(lp1911
VU0KCZ16LT
p1912
aVU17V6C5K6
p1913
asg14
g15
(S'\x07\xe0\x08\x01\x0f%\x1b\x04M\xce'
p1914
tp1915
Rp1916
sg19
I9
sg20
I10
sbsS'ad0e2f61'
p1917
(icore
Match
p1918
(dp1919
g6
(lp1920
VU0HTR4KRT
p1921
aVU0HTQ6XQQ
p1922
asg10
(lp1923
VU0HTSHTR9
p1924
aVU0HTVEJKC
p1925
asg14
g15
(S'\x07\xe0\x0c\x0e\x0f+\x04\x0b\xffK'
p1926
tp1927
Rp1928
sg19
I4
sg20
I10
sbsS'a410fe45'
p1929
(icore
Match
p1930
(dp1931
g6
(lp1932
VU0KA76231
p1933
aVU0HTSHTR9
p1934
asg10
(lp1935
VU0HTQJMHN
p1936
aVU1CUW4Z7S
p1937
asg14
g15
(S'\x07\xe0\n\x1c\r*\x10\x07\x00\xa1'
p1938
tp1939
Rp1940
sg19
I10
sg20
I5
sbsS'3c1b13a0'
p1941
(icore
Match
p1942
(dp1943
g6
(lp1944
VU0HTSHTR9
p1945
aVU0HTVEJKC
p1946
asg10
(lp1947
VU0HTVTLBS
p1948
aVU0HTJ2DK6
p1949
asg14
g15
(S'\x07\xe0\n\n\x0c\x0e8\x05\xa5V'
p1950
tp1951
Rp1952
sg19
I10
sg20
I6
sbsS'7e27b0df'
p1953
(icore
Match
p1954
(dp1955
g6
(lp1956
VU1CUW4Z7S
p1957
aVU0JBNHJ3X
p1958
asg10
(lp1959
VU07V0F5AS
p1960
aVU17V6C5K6
p1961
asg14
g15
(S'\x07\xe0\x08\x01\x0b\x16\x07\x08p\x86'
p1962
tp1963
Rp1964
sg19
I4
sg20
I10
sbsS'0bb3cf33'
p1965
(icore
Match
p1966
(dp1967
g6
(lp1968
VU0HTVTLBS
p1969
aVU17V6C5K6
p1970
asg10
(lp1971
VU0HTPM4P8
p1972
aVU0HTRQ5HQ
p1973
asg14
g15
(S'\x07\xe0\x07\x1c\x12\x19.\r!\xc8'
p1974
tp1975
Rp1976
sg19
I10
sg20
I6
sbsS'ccb575bb'
p1977
(icore
Match
p1978
(dp1979
g6
(lp1980
VU0HTVTLBS
p1981
aVU0HTQ6XQQ
p1982
asg10
(lp1983
VU0HTPM4P8
p1984
aVU0J0XLJUD
p1985
asg14
g15
(S'\x07\xe0\n\x18\x11\x080\x01\x13\x99'
p1986
tp1987
Rp1988
sg19
I10
sg20
I4
sbsS'9bc4d57d'
p1989
(icore
Match
p1990
(dp1991
g6
(lp1992
VU0KCZ16LT
p1993
aVU0KA76231
p1994
asg10
(lp1995
VU0JBNHJ3X
p1996
aVU0J8ETRH7
p1997
asg14
g15
(S'\x07\xe0\x0b\x16\x11\x082\x0f\x04\xf0'
p1998
tp1999
Rp2000
sg19
I3
sg20
I10
sbsS'12579b78'
p2001
(icore
Match
p2002
(dp2003
g6
(lp2004
VU0J13UGAF
p2005
aVU0KA76231
p2006
asg10
(lp2007
VU0J8ETRH7
p2008
aVU0HTPS3JS
p2009
asg14
g15
(S'\x07\xe0\t\x1c\r \x04\x06H\x02'
p2010
tp2011
Rp2012
sg19
I4
sg20
I10
sbsS'f813ca67'
p2013
(icore
Match
p2014
(dp2015
g6
(lp2016
VU0JBNHJ3X
p2017
aVU0HTSHTR9
p2018
asg10
(lp2019
VU0KCZ16LT
p2020
aVU0HTVTLBS
p2021
asg14
g15
(S'\x07\xe0\t\x0c\x0e( \x04.\xdf'
p2022
tp2023
Rp2024
sg19
I10
sg20
I8
sbsS'dfa88450'
p2025
(icore
Match
p2026
(dp2027
g6
(lp2028
VU0KA76231
p2029
aVU0J8ETRH7
p2030
asg10
(lp2031
VU0JBNHJ3X
p2032
aVU0J13UGAF
p2033
asg14
g15
(S'\x07\xe0\x07\x15\x0b\x15\x01\rd\xb0'
p2034
tp2035
Rp2036
sg19
I9
sg20
I10
sbsS'6884d1bb'
p2037
(icore
Match
p2038
(dp2039
g6
(lp2040
VU17V6C5K6
p2041
aVU0JBNHJ3X
p2042
asg10
(lp2043
VU0HTPM4P8
p2044
aVU0J8ETRH7
p2045
asg14
g15
(S'\x07\xe0\n\x07\x11& \t\x8dq'
p2046
tp2047
Rp2048
sg19
I9
sg20
I10
sbsS'87e3bc8e'
p2049
(icore
Match
p2050
(dp2051
g6
(lp2052
VU0JBNHJ3X
p2053
aVU0HTVEJKC
p2054
asg10
(lp2055
VU0J8ETRH7
p2056
aVU0HTPS3JS
p2057
asg14
g15
(S'\x07\xe0\x07\r\x10\x00\t\x067c'
p2058
tp2059
Rp2060
sg19
I10
sg20
I2
sbsS'2aaafe99'
p2061
(icore
Match
p2062
(dp2063
g6
(lp2064
VU1CUW4Z7S
p2065
aVU0KA76231
p2066
asg10
(lp2067
VU0J8ETRH7
p2068
aVU0HTR4KRT
p2069
asg14
g15
(S'\x07\xe0\n\x12\x0e7\x11\x00l\x9e'
p2070
tp2071
Rp2072
sg19
I6
sg20
I10
sbsS'711ee754'
p2073
(icore
Match
p2074
(dp2075
g6
(lp2076
VU0KA76231
p2077
aVU0J0XLJUD
p2078
asg10
(lp2079
VU0HTVTLBS
p2080
aVU0HTSHTR9
p2081
asg14
g15
(S'\x07\xe0\t\x1e\x10!\x1b\x01,j'
p2082
tp2083
Rp2084
sg19
I6
sg20
I10
sbsS'6b4cbd20'
p2085
(icore
Match
p2086
(dp2087
g6
(lp2088
VU0HTVTLBS
p2089
aVU0HTQJMHN
p2090
asg10
(lp2091
VU0J0XLJUD
p2092
aVU0HTQ6XQQ
p2093
asg14
g15
(S'\x07\xe0\x08\x13\x0b36\x00?\xde'
p2094
tp2095
Rp2096
sg19
I6
sg20
I10
sbsS'7af31459'
p2097
(icore
Match
p2098
(dp2099
g6
(lp2100
VU0J13UGAF
p2101
aVU0JBNHJ3X
p2102
asg10
(lp2103
VU0HTPS3JS
p2104
aVU0J8ETRH7
p2105
asg14
g15
(S'\x07\xe0\t\x1d\x11\x01\x1e\x08-\xf7'
p2106
tp2107
Rp2108
sg19
I10
sg20
I5
sbsS'9b90134a'
p2109
(icore
Match
p2110
(dp2111
g6
(lp2112
VU0JBNHJ3X
p2113
aVU0KCZ16LT
p2114
asg10
(lp2115
VU0HTPM4P8
p2116
aVU0KA76231
p2117
asg14
g15
(S'\x07\xe0\x0b\x03\x11\x12\t\x0c\xear'
p2118
tp2119
Rp2120
sg19
I5
sg20
I10
sbsS'348b40fa'
p2121
(icore
Match
p2122
(dp2123
g6
(lp2124
VU0KCZ16LT
p2125
aVU0HTJ2DK6
p2126
asg10
(lp2127
VU0HTVEJKC
p2128
aVU0HTVTLBS
p2129
asg14
g15
(S'\x07\xe0\x0b\x11\x10\x11\x17\x03=l'
p2130
tp2131
Rp2132
sg19
I4
sg20
I10
sbsS'e6055895'
p2133
(icore
Match
p2134
(dp2135
g6
(lp2136
VU0HTQJMHN
p2137
aVU0HTVEJKC
p2138
asg10
(lp2139
VU0J0XLJUD
p2140
aVU0HTQ6XQQ
p2141
asg14
g15
(S'\x07\xe0\x08\x08\x11)\x1a\x02\xa4*'
p2142
tp2143
Rp2144
sg19
I8
sg20
I10
sbsS'00b6de18'
p2145
(icore
Match
p2146
(dp2147
g6
(lp2148
VU0JBNHJ3X
p2149
aVU0W5T83EK
p2150
asg10
(lp2151
VU0J0XLJUD
p2152
aVU0HTJ2DK6
p2153
asg14
g15
(S'\x07\xe0\x07\x1d\x117\r\n\xad?'
p2154
tp2155
Rp2156
sg19
I10
sg20
I8
sbsS'166c3152'
p2157
(icore
Match
p2158
(dp2159
g6
(lp2160
VU0W5T83EK
p2161
aVU0HTQ6XQQ
p2162
asg10
(lp2163
VU0JBNHJ3X
p2164
aVU0J0XLJUD
p2165
asg14
g15
(S'\x07\xe0\x07\x1d\x12\x16\x1e\x02\xfa\x83'
p2166
tp2167
Rp2168
sg19
I10
sg20
I6
sbsS'463022fa'
p2169
(icore
Match
p2170
(dp2171
g6
(lp2172
VU0J13UGAF
p2173
aVU0HTPS3JS
p2174
asg10
(lp2175
VU0HTSHTR9
p2176
aVU0HTVTLBS
p2177
asg14
g15
(S'\x07\xe0\t\x1b\x0b8(\x06z\x12'
p2178
tp2179
Rp2180
sg19
I10
sg20
I4
sbsS'30b4d68a'
p2181
(icore
Match
p2182
(dp2183
g6
(lp2184
VU0HTQJMHN
p2185
aVU0HTJ2DK6
p2186
asg10
(lp2187
VU0J0XLJUD
p2188
aVU0HTQ6XQQ
p2189
asg14
g15
(S'\x07\xe0\t\x14\x0b\x04\x04\x00M\xf0'
p2190
tp2191
Rp2192
sg19
I10
sg20
I1
sbsS'b1c74414'
p2193
(icore
Match
p2194
(dp2195
g6
(lp2196
VU0HTVEJKC
p2197
aVU0HTSHTR9
p2198
asg10
(lp2199
VU0HTPM4P8
p2200
aVU0HTR4KRT
p2201
asg14
g15
(S'\x07\xe0\n\x19\r)\x11\x06\xe4A'
p2202
tp2203
Rp2204
sg19
I7
sg20
I10
sbsS'7d26b98f'
p2205
(icore
Match
p2206
(dp2207
g6
(lp2208
VU0HTQJMHN
p2209
aVU0HTJ2DK6
p2210
asg10
(lp2211
VU0HTPM4P8
p2212
aVU0J0XLJUD
p2213
asg14
g15
(S'\x07\xe0\n\x0b\x106\x11\x01+('
p2214
tp2215
Rp2216
sg19
I10
sg20
I5
sbsS'c8a44714'
p2217
(icore
Match
p2218
(dp2219
g6
(lp2220
VU0J0XLJUD
p2221
aVU0HTQ6XQQ
p2222
asg10
(lp2223
VU1CUW4Z7S
p2224
aVU0HTVTLBS
p2225
asg14
g15
(S'\x07\xe0\x08\x1e\x11\x19\x1a\x08S;'
p2226
tp2227
Rp2228
sg19
I10
sg20
I3
sbsS'4f5253fa'
p2229
(icore
Match
p2230
(dp2231
g6
(lp2232
VU0HTQJMHN
p2233
aVU0HTPS3JS
p2234
asg10
(lp2235
VU0HTPM4P8
p2236
aVU0J0XLJUD
p2237
asg14
g15
(S'\x07\xe0\x07\x19\x0b"\x0f\x04\xf7\xcc'
p2238
tp2239
Rp2240
sg19
I10
sg20
I9
sbsS'7da4aa6c'
p2241
(icore
Match
p2242
(dp2243
g6
(lp2244
VU0J13UGAF
p2245
aVU0J8ETRH7
p2246
asg10
(lp2247
VU0HTR4KRT
p2248
aVU0JBNHJ3X
p2249
asg14
g15
(S'\x07\xe0\n\x13\x0c-\x0e\x01\x16\xe6'
p2250
tp2251
Rp2252
sg19
I4
sg20
I10
sbsS'6529d9bc'
p2253
(icore
Match
p2254
(dp2255
g6
(lp2256
VU0JBNHJ3X
p2257
aVU1CUW4Z7S
p2258
asg10
(lp2259
VU0KA76231
p2260
aVU0KCZ16LT
p2261
asg14
g15
(S'\x07\xe0\x0b\x1e\x10\x18;\x0f2\x81'
p2262
tp2263
Rp2264
sg19
I9
sg20
I10
sbsS'f3fb5775'
p2265
(icore
Match
p2266
(dp2267
g6
(lp2268
VU0HTVTLBS
p2269
aVU0HTVEJKC
p2270
asg10
(lp2271
VU0HTSHTR9
p2272
aVU0KA76231
p2273
asg14
g15
(S'\x07\xe0\t\x10\x0b\x06\x0e\t\x0b*'
p2274
tp2275
Rp2276
sg19
I5
sg20
I10
sbsS'3416ebf5'
p2277
(icore
Match
p2278
(dp2279
g6
(lp2280
VU0W5T83EK
p2281
aVU0HTQ6XQQ
p2282
asg10
(lp2283
VU0JBNHJ3X
p2284
aVU17V6C5K6
p2285
asg14
g15
(S'\x07\xe0\t\x17\x12#\x1c\x07\x1a\x81'
p2286
tp2287
Rp2288
sg19
I9
sg20
I10
sbsS'd8e31bf4'
p2289
(icore
Match
p2290
(dp2291
g6
(lp2292
VU0KA76231
p2293
aVU0J13UGAF
p2294
asg10
(lp2295
VU0JBNHJ3X
p2296
aVU0HTRQ5HQ
p2297
asg14
g15
(S'\x07\xe0\n\x03\x11\x00\x04\x0ep\xa0'
p2298
tp2299
Rp2300
sg19
I6
sg20
I10
sbsS'56d77718'
p2301
(icore
Match
p2302
(dp2303
g6
(lp2304
VU0HTPM4P8
p2305
aVU0KA76231
p2306
asg10
(lp2307
VU0HTVTLBS
p2308
aVU0JBNHJ3X
p2309
asg14
g15
(S'\x07\xe0\x0c\x0c\x12\x0f\x03\x07\x0c\x03'
p2310
tp2311
Rp2312
sg19
I10
sg20
I7
sbsS'd8f7f2cc'
p2313
(icore
Match
p2314
(dp2315
g6
(lp2316
VU0J0XLJUD
p2317
aVU0HTQ6XQQ
p2318
asg10
(lp2319
VU0JBNHJ3X
p2320
aVU0HTRQ5HQ
p2321
asg14
g15
(S'\x07\xe0\x08\x19\x0c\x05\t\x00X\xb2'
p2322
tp2323
Rp2324
sg19
I7
sg20
I10
sbsS'3ebd5584'
p2325
(icore
Match
p2326
(dp2327
g6
(lp2328
VU0JBNHJ3X
p2329
aVU0J8ETRH7
p2330
asg10
(lp2331
VU0KCZ16LT
p2332
aVU0J13UGAF
p2333
asg14
g15
(S'\x07\xe0\x0b\x17\x0f\x05\x0c\x037+'
p2334
tp2335
Rp2336
sg19
I7
sg20
I10
sbsS'4f44423d'
p2337
(icore
Match
p2338
(dp2339
g6
(lp2340
VU0HTPS3JS
p2341
aVU0HTVEJKC
p2342
asg10
(lp2343
VU0HTSHTR9
p2344
aVU0JBNHJ3X
p2345
asg14
g15
(S'\x07\xe0\x08\t\x0c\x05/\x00C\x9f'
p2346
tp2347
Rp2348
sg19
I4
sg20
I10
sbsS'dac7cd0f'
p2349
(icore
Match
p2350
(dp2351
g6
(lp2352
VU0HTSHTR9
p2353
aVU0JBNHJ3X
p2354
asg10
(lp2355
VU0HTPM4P8
p2356
aVU0HTJ2DK6
p2357
asg14
g15
(S'\x07\xe0\x08\x08\x0b06\x04\x8f\xc8'
p2358
tp2359
Rp2360
sg19
I10
sg20
I7
sbsS'fc9503aa'
p2361
(icore
Match
p2362
(dp2363
g6
(lp2364
VU0HTVTLBS
p2365
aVU0HTPS3JS
p2366
asg10
(lp2367
VU0HTSHTR9
p2368
aVU0HTJ2DK6
p2369
asg14
g15
(S'\x07\xe0\x0b\x0e\n8\x16\x02c1'
p2370
tp2371
Rp2372
sg19
I10
sg20
I9
sbsS'bbde4f0a'
p2373
(icore
Match
p2374
(dp2375
g6
(lp2376
VU0JBNHJ3X
p2377
aVU0J8ETRH7
p2378
asg10
(lp2379
VU0HTPS3JS
p2380
aVU0HTVEJKC
p2381
asg14
g15
(S'\x07\xe0\x0c\x10\x0c$#\x06\xaf;'
p2382
tp2383
Rp2384
sg19
I7
sg20
I10
sbsS'eef9de31'
p2385
(icore
Match
p2386
(dp2387
g6
(lp2388
VU0HTVTLBS
p2389
aVU0JNVCVRT
p2390
asg10
(lp2391
VU0HTPM4P8
p2392
aVU0HTRQ5HQ
p2393
asg14
g15
(S'\x07\xe0\x07\x1c\x0f\x05&\x05\x03\xea'
p2394
tp2395
Rp2396
sg19
I10
sg20
I5
sbsS'37bb401b'
p2397
(icore
Match
p2398
(dp2399
g6
(lp2400
VU0HTPM4P8
p2401
aVU0HTR4KRT
p2402
asg10
(lp2403
VU0HTSHTR9
p2404
aVU0HTVTLBS
p2405
asg14
g15
(S'\x07\xe0\x0b\x03\x10+\x00\x0c\xf7Z'
p2406
tp2407
Rp2408
sg19
I10
sg20
I1
sbsS'35a85d62'
p2409
(icore
Match
p2410
(dp2411
g6
(lp2412
VU0HTPUK8R
p2413
aVU0HTQJMHN
p2414
asg10
(lp2415
VU0HTPM4P8
p2416
aVU0KCZ16LT
p2417
asg14
g15
(S'\x07\xe0\t\x02\x0e\x1a0\x01H\x95'
p2418
tp2419
Rp2420
sg19
I10
sg20
I8
sbsS'1b6fdc25'
p2421
(icore
Match
p2422
(dp2423
g6
(lp2424
VU0J8ETRH7
p2425
aVU0HTPUK8R
p2426
asg10
(lp2427
VU0HTPM4P8
p2428
aVU0KCZ16LT
p2429
asg14
g15
(S'\x07\xe0\x0b\x19\x0f\x0b!\x02\x80\xbb'
p2430
tp2431
Rp2432
sg19
I10
sg20
I5
sbsS'5fe09390'
p2433
(icore
Match
p2434
(dp2435
g6
(lp2436
VU0HTJ2DK6
p2437
aVU0HTVEJKC
p2438
asg10
(lp2439
VU17V6C5K6
p2440
aVU0HTQ6XQQ
p2441
asg14
g15
(S'\x07\xe0\x08\t\x11\x1e\x1c\x04\x8e\x7f'
p2442
tp2443
Rp2444
sg19
I5
sg20
I10
sbsS'37362b55'
p2445
(icore
Match
p2446
(dp2447
g6
(lp2448
VU0KA76231
p2449
aVU0J8ETRH7
p2450
asg10
(lp2451
VU1CUW4Z7S
p2452
aVU0JBNHJ3X
p2453
asg14
g15
(S'\x07\xe0\x0b\x01\x102\x18\x04\xa3^'
p2454
tp2455
Rp2456
sg19
I10
sg20
I5
sbsS'cf746a0e'
p2457
(icore
Match
p2458
(dp2459
g6
(lp2460
VU0HTJ2DK6
p2461
aVU0HTVEJKC
p2462
asg10
(lp2463
VU0J0XLJUD
p2464
aVU0HTPS3JS
p2465
asg14
g15
(S'\x07\xe0\x0c\x02\r\x072\r\xc6\xf7'
p2466
tp2467
Rp2468
sg19
I10
sg20
I6
sbsS'f02527c3'
p2469
(icore
Match
p2470
(dp2471
g6
(lp2472
VU0J13UGAF
p2473
aVU0HTPS3JS
p2474
asg10
(lp2475
VU0HTSHTR9
p2476
aVU0HTVTLBS
p2477
asg14
g15
(S'\x07\xe0\t\x1b\x0b9\x1f\t\x00\xe9'
p2478
tp2479
Rp2480
sg19
I10
sg20
I5
sbsS'9b4cf195'
p2481
(icore
Match
p2482
(dp2483
g6
(lp2484
VU0HTQ6XQQ
p2485
aVU0J0XLJUD
p2486
asg10
(lp2487
VU0HTQJMHN
p2488
aVU0HTVTLBS
p2489
asg14
g15
(S'\x07\xe0\t\x05\x11+9\n"!'
p2490
tp2491
Rp2492
sg19
I9
sg20
I10
sbsS'f06ca62c'
p2493
(icore
Match
p2494
(dp2495
g6
(lp2496
VU0KA76231
p2497
aVU1CUW4Z7S
p2498
asg10
(lp2499
VU0J13UGAF
p2500
aVU0KCZ16LT
p2501
asg14
g15
(S'\x07\xe0\t\x15\x0b\t2\x0c\x1d@'
p2502
tp2503
Rp2504
sg19
I10
sg20
I8
sbsS'2c35dc15'
p2505
(icore
Match
p2506
(dp2507
g6
(lp2508
VU0JBNHJ3X
p2509
aVU0HTVTLBS
p2510
asg10
(lp2511
VU0KA76231
p2512
aVU0KCZ16LT
p2513
asg14
g15
(S'\x07\xe0\x0b\x0e\x10\x17.\x0b\xbba'
p2514
tp2515
Rp2516
sg19
I6
sg20
I10
sbsS'c9dfa4e5'
p2517
(icore
Match
p2518
(dp2519
g6
(lp2520
VU0JBNHJ3X
p2521
aVU0HTSHTR9
p2522
asg10
(lp2523
VU0HTPM4P8
p2524
aVU0HTVTLBS
p2525
asg14
g15
(S"\x07\xe0\x0c\x02\x0c*'\x08\x9d\xe8"
p2526
tp2527
Rp2528
sg19
I10
sg20
I8
sbsS'97c13ba4'
p2529
(icore
Match
p2530
(dp2531
g6
(lp2532
VU0KA76231
p2533
aVU0HTVEJKC
p2534
asg10
(lp2535
VU0HTQJMHN
p2536
aVU0HTQ6XQQ
p2537
asg14
g15
(S'\x07\xe0\t\x14\x0f;\x18\x02\x94\x92'
p2538
tp2539
Rp2540
sg19
I8
sg20
I10
sbsS'00ddc580'
p2541
(icore
Match
p2542
(dp2543
g6
(lp2544
VU0J8ETRH7
p2545
aVU0HTPM4P8
p2546
asg10
(lp2547
VU0HTQJMHN
p2548
aVU0HTVTLBS
p2549
asg14
g15
(S'\x07\xe0\x0b\x01\x11\x1e\t\x04\x9b\xea'
p2550
tp2551
Rp2552
sg19
I10
sg20
I9
sbsS'a4bdc32b'
p2553
(icore
Match
p2554
(dp2555
g6
(lp2556
VU07V0F5AS
p2557
aVU0KA76231
p2558
asg10
(lp2559
VU0J13UGAF
p2560
aVU0J8ETRH7
p2561
asg14
g15
(S'\x07\xe0\x08\x05\x10\x1e\x0c\x0c\xe4\x1d'
p2562
tp2563
Rp2564
sg19
I10
sg20
I5
sbsS'23086b92'
p2565
(icore
Match
p2566
(dp2567
g6
(lp2568
VU0JBNHJ3X
p2569
aVU0J8ETRH7
p2570
asg10
(lp2571
VU0HTQJMHN
p2572
aVU0HTSHTR9
p2573
asg14
g15
(S'\x07\xe0\x0b\x10\r7\x11\r\xec}'
p2574
tp2575
Rp2576
sg19
I6
sg20
I10
sbsS'c7ddd88c'
p2577
(icore
Match
p2578
(dp2579
g6
(lp2580
VU0J8ETRH7
p2581
aVU0HTPS3JS
p2582
asg10
(lp2583
VU0JBNHJ3X
p2584
aVU0HTR4KRT
p2585
asg14
g15
(S'\x07\xe0\x0c\x15\x11\x1e\x15\x07>\xa9'
p2586
tp2587
Rp2588
sg19
I8
sg20
I10
sbsS'aa670609'
p2589
(icore
Match
p2590
(dp2591
g6
(lp2592
VU0HTSHTR9
p2593
aVU0J0XLJUD
p2594
asg10
(lp2595
VU0HTQJMHN
p2596
aVU0HTVTLBS
p2597
asg14
g15
(S'\x07\xe0\x07\x13\r0\x05\x04\xfd2'
p2598
tp2599
Rp2600
sg19
I10
sg20
I7
sbsS'2f18c4cf'
p2601
(icore
Match
p2602
(dp2603
g6
(lp2604
VU0KCZ16LT
p2605
aVU0J0XLJUD
p2606
asg10
(lp2607
VU0JBNHJ3X
p2608
aVU0HTVTLBS
p2609
asg14
g15
(S'\x07\xe0\t\x1a\x10\x08\x07\n k'
p2610
tp2611
Rp2612
sg19
I4
sg20
I10
sbsS'6c2c9fc6'
p2613
(icore
Match
p2614
(dp2615
g6
(lp2616
VU0HTVEJKC
p2617
aVU0J0XLJUD
p2618
asg10
(lp2619
VU0HTQJMHN
p2620
aVU0HTVTLBS
p2621
asg14
g15
(S'\x07\xe0\t\x16\x0b$4\x0b\xc1\xbf'
p2622
tp2623
Rp2624
sg19
I8
sg20
I10
sbsS'f39e8f42'
p2625
(icore
Match
p2626
(dp2627
g6
(lp2628
VU0HTJ2DK6
p2629
aVU0J0XLJUD
p2630
asg10
(lp2631
VU0HTPUK8R
p2632
aVU0HTPM4P8
p2633
asg14
g15
(S'\x07\xe0\x08\x1f\r\x0b\x19\x00$+'
p2634
tp2635
Rp2636
sg19
I10
sg20
I7
sbsS'8b1cd73c'
p2637
(icore
Match
p2638
(dp2639
g6
(lp2640
VU0HTPM4P8
p2641
aVU0J0XLJUD
p2642
asg10
(lp2643
VU0HTPS3JS
p2644
aVU0HTVEJKC
p2645
asg14
g15
(S'\x07\xe0\x0c\t\x0b\x00\x0e\x07C*'
p2646
tp2647
Rp2648
sg19
I2
sg20
I10
sbsS'9c983f26'
p2649
(icore
Match
p2650
(dp2651
g6
(lp2652
VU0J13UGAF
p2653
aVU0J8LB74P
p2654
asg10
(lp2655
VU0W5T83EK
p2656
aVU0KCZ16LT
p2657
asg14
g15
(S'\x07\xe0\x07\x16\x0e64\n\xea\x8f'
p2658
tp2659
Rp2660
sg19
I10
sg20
I8
sbsS'd96d305e'
p2661
(icore
Match
p2662
(dp2663
g6
(lp2664
VU0HTVTLBS
p2665
aVU0JBNHJ3X
p2666
asg10
(lp2667
VU0HTSHTR9
p2668
aVU0J0XLJUD
p2669
asg14
g15
(S'\x07\xe0\x07\x13\x112\x1f\x0e\xd9\xae'
p2670
tp2671
Rp2672
sg19
I10
sg20
I8
sbsS'95b5e6f0'
p2673
(icore
Match
p2674
(dp2675
g6
(lp2676
VU0HTPS3JS
p2677
aVU0HTJ2DK6
p2678
asg10
(lp2679
VU0J8ETRH7
p2680
aVU0HTVTLBS
p2681
asg14
g15
(S'\x07\xe0\x0c\x01\x11!\x1a\x08\xe4a'
p2682
tp2683
Rp2684
sg19
I10
sg20
I3
sbsS'478e3e82'
p2685
(icore
Match
p2686
(dp2687
g6
(lp2688
VU0J8ETRH7
p2689
aVU1CUW4Z7S
p2690
asg10
(lp2691
VU0W5T83EK
p2692
aVU0HTRQ5HQ
p2693
asg14
g15
(S'\x07\xe0\x08\x1a\x11\x03:\x08P\x1f'
p2694
tp2695
Rp2696
sg19
I9
sg20
I10
sbsS'0eccc49f'
p2697
(icore
Match
p2698
(dp2699
g6
(lp2700
VU0KCZ16LT
p2701
aVU0HTVEJKC
p2702
asg10
(lp2703
VU0HTQJMHN
p2704
aVU0HTVTLBS
p2705
asg14
g15
(S'\x07\xe0\t\x16\x0b%\x0b\x00\x90\xf7'
p2706
tp2707
Rp2708
sg19
I10
sg20
I8
sbsS'7f53afbd'
p2709
(icore
Match
p2710
(dp2711
g6
(lp2712
VU0JBNHJ3X
p2713
aVU0HTVTLBS
p2714
asg10
(lp2715
VU0KA76231
p2716
aVU0HTR4KRT
p2717
asg14
g15
(S'\x07\xe0\x0c\x0e\x0c\x03\r\t8\xbb'
p2718
tp2719
Rp2720
sg19
I10
sg20
I8
sbsS'6f467b1b'
p2721
(icore
Match
p2722
(dp2723
g6
(lp2724
VU0HTSHTR9
p2725
aVU0HTQ6XQQ
p2726
asg10
(lp2727
VU0J0XLJUD
p2728
aVU0834SYHL
p2729
asg14
g15
(S'\x07\xe0\x08\x03\x10\x16\x1a\x00\x83\xff'
p2730
tp2731
Rp2732
sg19
I10
sg20
I9
sbsS'b132ebbc'
p2733
(icore
Match
p2734
(dp2735
g6
(lp2736
VU0J8ETRH7
p2737
aVU0JBNHJ3X
p2738
asg10
(lp2739
VU0KCZ16LT
p2740
aVU0KA76231
p2741
asg14
g15
(S'\x07\xe0\x0b\x11\x0b\x1d"\n\xa5\xdd'
p2742
tp2743
Rp2744
sg19
I9
sg20
I10
sbsS'aa18beff'
p2745
(icore
Match
p2746
(dp2747
g6
(lp2748
VU1CUW4Z7S
p2749
aVU0HTSHTR9
p2750
asg10
(lp2751
VU0HTPM4P8
p2752
aVU0KA76231
p2753
asg14
g15
(S'\x07\xe0\x0c\x02\x11\x15\x17\x03j\xda'
p2754
tp2755
Rp2756
sg19
I10
sg20
I5
sbsS'a96e0d08'
p2757
(icore
Match
p2758
(dp2759
g6
(lp2760
VU0J0XLJUD
p2761
aVU0HTQ6XQQ
p2762
asg10
(lp2763
VU0HTVTLBS
p2764
aVU0HTQJMHN
p2765
asg14
g15
(S'\x07\xe0\x0c\t\x127)\t\xb5\xc8'
p2766
tp2767
Rp2768
sg19
I7
sg20
I10
sbsS'58d171d7'
p2769
(icore
Match
p2770
(dp2771
g6
(lp2772
VU0J13UGAF
p2773
aVU0JBNHJ3X
p2774
asg10
(lp2775
VU0KCZ16LT
p2776
aVU0KA76231
p2777
asg14
g15
(S'\x07\xe0\t\x17\n\x155\x004\x80'
p2778
tp2779
Rp2780
sg19
I3
sg20
I10
sbsS'4bb6c197'
p2781
(icore
Match
p2782
(dp2783
g6
(lp2784
VU0JBNHJ3X
p2785
aVU1CUW4Z7S
p2786
asg10
(lp2787
VU0HTVTLBS
p2788
aVU0KA76231
p2789
asg14
g15
(S'\x07\xe0\x0b\x11\x0f5\x08\x05\x9c\x06'
p2790
tp2791
Rp2792
sg19
I7
sg20
I10
sbsS'230c4874'
p2793
(icore
Match
p2794
(dp2795
g6
(lp2796
VU1CUW4Z7S
p2797
aVU0HTVTLBS
p2798
asg10
(lp2799
VU0KA76231
p2800
aVU0J13UGAF
p2801
asg14
g15
(S'\x07\xe0\n\x07\x0e*9\x0b\x03\r'
p2802
tp2803
Rp2804
sg19
I10
sg20
I8
sbsS'6ee3b852'
p2805
(icore
Match
p2806
(dp2807
g6
(lp2808
VU0HTVEJKC
p2809
aVU0HTJ2DK6
p2810
asg10
(lp2811
VU0HTPM4P8
p2812
aVU0HTVTLBS
p2813
asg14
g15
(S'\x07\xe0\n\x11\x10\x13!\x05\xa5\xc7'
p2814
tp2815
Rp2816
sg19
I10
sg20
I1
sbsS'2cf1ff5e'
p2817
(icore
Match
p2818
(dp2819
g6
(lp2820
VU0HTVTLBS
p2821
aVU0JNVCVRT
p2822
asg10
(lp2823
VU0HTPM4P8
p2824
aVU0HTRQ5HQ
p2825
asg14
g15
(S'\x07\xe0\x07\x1c\x0f\x053\x0f"j'
p2826
tp2827
Rp2828
sg19
I7
sg20
I10
sbsS'432f8662'
p2829
(icore
Match
p2830
(dp2831
g6
(lp2832
VU0HTVEJKC
p2833
aVU0HTSHTR9
p2834
asg10
(lp2835
VU0J0XLJUD
p2836
aVU0HTQJMHN
p2837
asg14
g15
(S'\x07\xe0\x08\x04\x10\x0b\x05\x0b\x9e\xce'
p2838
tp2839
Rp2840
sg19
I10
sg20
I1
sbsS'95c022ff'
p2841
(icore
Match
p2842
(dp2843
g6
(lp2844
VU1CUW4Z7S
p2845
aVU0KA76231
p2846
asg10
(lp2847
VU0J8ETRH7
p2848
aVU0JBNHJ3X
p2849
asg14
g15
(S'\x07\xe0\x0b\x0e\r7%\x08\xc3?'
p2850
tp2851
Rp2852
sg19
I10
sg20
I8
sbsS'c6da4246'
p2853
(icore
Match
p2854
(dp2855
g6
(lp2856
VU1CUW4Z7S
p2857
aVU0J8ETRH7
p2858
asg10
(lp2859
VU0KA76231
p2860
aVU0J0XLJUD
p2861
asg14
g15
(S'\x07\xe0\t\x1e\x10\x18\x00\x0eS\x97'
p2862
tp2863
Rp2864
sg19
I10
sg20
I7
sbsS'c3ec9561'
p2865
(icore
Match
p2866
(dp2867
g6
(lp2868
VU0HTQJMHN
p2869
aVU0KCZ16LT
p2870
asg10
(lp2871
VU0HTPM4P8
p2872
aVU0HTPUK8R
p2873
asg14
g15
(S'\x07\xe0\x08\x1e\x11\x06,\x02\x1ed'
p2874
tp2875
Rp2876
sg19
I7
sg20
I10
sbsS'c1856a5b'
p2877
(icore
Match
p2878
(dp2879
g6
(lp2880
VU0HTPM4P8
p2881
aVU0HTPS3JS
p2882
asg10
(lp2883
VU0HTSHTR9
p2884
aVU0HTVEJKC
p2885
asg14
g15
(S'\x07\xe0\x0c\x02\x0e\x1b\x1b\x0b(8'
p2886
tp2887
Rp2888
sg19
I10
sg20
I4
sbsS'4dae258c'
p2889
(icore
Match
p2890
(dp2891
g6
(lp2892
VU0JBNHJ3X
p2893
aVU0J13UGAF
p2894
asg10
(lp2895
VU0KA76231
p2896
aVU0J8ETRH7
p2897
asg14
g15
(S'\x07\xe0\t\x1a\x11\x13\x01\x02\xad\xc4'
p2898
tp2899
Rp2900
sg19
I10
sg20
I7
sbsS'76723d41'
p2901
(icore
Match
p2902
(dp2903
g6
(lp2904
VU1CUW4Z7S
p2905
aVU0J13UGAF
p2906
asg10
(lp2907
VU0KA76231
p2908
aVU0J8ETRH7
p2909
asg14
g15
(S'\x07\xe0\t\x1a\x11\x12+\x00\x95\xc1'
p2910
tp2911
Rp2912
sg19
I10
sg20
I5
sbsS'00fbbe94'
p2913
(icore
Match
p2914
(dp2915
g6
(lp2916
VU0JBNHJ3X
p2917
aVU0HTJ2DK6
p2918
asg10
(lp2919
VU0HTVTLBS
p2920
aVU0HTSHTR9
p2921
asg14
g15
(S'\x07\xe0\x08\x10\x0c\t\x0f\n\x86\xe6'
p2922
tp2923
Rp2924
sg19
I8
sg20
I10
sbsS'efc1c957'
p2925
(icore
Match
p2926
(dp2927
g6
(lp2928
VU0HTVTLBS
p2929
aVU0J0XLJUD
p2930
asg10
(lp2931
VU0HTQJMHN
p2932
aVU0HTSHTR9
p2933
asg14
g15
(S'\x07\xe0\n\x1b\x0f\x1c\x1e\x04\xe4\xff'
p2934
tp2935
Rp2936
sg19
I10
sg20
I8
sbsS'72904987'
p2937
(icore
Match
p2938
(dp2939
g6
(lp2940
VU0JBNHJ3X
p2941
aVU07V0F5AS
p2942
asg10
(lp2943
VU0J8ETRH7
p2944
aVU0HTVEJKC
p2945
asg14
g15
(S'\x07\xe0\x08\x10\r$)\n\t\x1e'
p2946
tp2947
Rp2948
sg19
I10
sg20
I5
sbsS'14b4062d'
p2949
(icore
Match
p2950
(dp2951
g6
(lp2952
VU0HTPS3JS
p2953
aVU0HTVEJKC
p2954
asg10
(lp2955
VU0HTPM4P8
p2956
aVU0J0XLJUD
p2957
asg14
g15
(S"\x07\xe0\x0c\x0f\n\x1a'\x06>\x84"
p2958
tp2959
Rp2960
sg19
I10
sg20
I8
sbsS'f684f38b'
p2961
(icore
Match
p2962
(dp2963
g6
(lp2964
VU0J0XLJUD
p2965
aVU0HTPS3JS
p2966
asg10
(lp2967
VU0HTVTLBS
p2968
aVU0HTQ6XQQ
p2969
asg14
g15
(S'\x07\xe0\x08\x18\r\x14\x14\x01]y'
p2970
tp2971
Rp2972
sg19
I9
sg20
I10
sbsS'8cc46a63'
p2973
(icore
Match
p2974
(dp2975
g6
(lp2976
VU0HTSHTR9
p2977
aVU0HTPM4P8
p2978
asg10
(lp2979
VU0J0XLJUD
p2980
aVU0834SYHL
p2981
asg14
g15
(S'\x07\xe0\x08\x02\x1053\x05\xc4\xca'
p2982
tp2983
Rp2984
sg19
I8
sg20
I10
sbsS'2988d157'
p2985
(icore
Match
p2986
(dp2987
g6
(lp2988
VU0HTPS3JS
p2989
aVU0KCZ16LT
p2990
asg10
(lp2991
VU0HTVTLBS
p2992
aVU0HTVEJKC
p2993
asg14
g15
(S'\x07\xe0\x0c\t\x0e,.\x08q\x05'
p2994
tp2995
Rp2996
sg19
I10
sg20
I8
sbsS'0f2ba79b'
p2997
(icore
Match
p2998
(dp2999
g6
(lp3000
VU1CUW4Z7S
p3001
aVU0J8ETRH7
p3002
asg10
(lp3003
VU0J13UGAF
p3004
aVU0KCZ16LT
p3005
asg14
g15
(S'\x07\xe0\x08\x1f\x0b8\x1f\x0b\xf4I'
p3006
tp3007
Rp3008
sg19
I10
sg20
I9
sbsS'ae9c9abb'
p3009
(icore
Match
p3010
(dp3011
g6
(lp3012
VU0J8ETRH7
p3013
aVU0JBNHJ3X
p3014
asg10
(lp3015
VU0HTVTLBS
p3016
aVU0KA76231
p3017
asg14
g15
(S'\x07\xe0\x0c\x05\x0e \x00\x0b\x89\xdb'
p3018
tp3019
Rp3020
sg19
I10
sg20
I9
sbsS'5c24894b'
p3021
(icore
Match
p3022
(dp3023
g6
(lp3024
VU0J8ETRH7
p3025
aVU1CUW4Z7S
p3026
asg10
(lp3027
VU0HTSHTR9
p3028
aVU0JBNHJ3X
p3029
asg14
g15
(S'\x07\xe0\x0b\x01\r)\x1b\x08\xceR'
p3030
tp3031
Rp3032
sg19
I7
sg20
I10
sbsS'a24f817a'
p3033
(icore
Match
p3034
(dp3035
g6
(lp3036
VU1CUW4Z7S
p3037
aVU0KA76231
p3038
asg10
(lp3039
VU0J8ETRH7
p3040
aVU07V0F5AS
p3041
asg14
g15
(S'\x07\xe0\n\x1a\x0e\n\x0b\x00{>'
p3042
tp3043
Rp3044
sg19
I8
sg20
I10
sbsS'3a26e361'
p3045
(icore
Match
p3046
(dp3047
g6
(lp3048
VU0J8ETRH7
p3049
aVU0HTVEJKC
p3050
asg10
(lp3051
VU0KA76231
p3052
aVU0JBNHJ3X
p3053
asg14
g15
(S'\x07\xe0\x0c\x07\x11\x1c\x1c\x04{\x9e'
p3054
tp3055
Rp3056
sg19
I10
sg20
I8
sbsS'9eb42db5'
p3057
(icore
Match
p3058
(dp3059
g6
(lp3060
VU1CUW4Z7S
p3061
aVU0JBNHJ3X
p3062
asg10
(lp3063
VU0J8ETRH7
p3064
aVU0HTVTLBS
p3065
asg14
g15
(S'\x07\xe0\x08\x18\r\x12-\x0c\x84\xa6'
p3066
tp3067
Rp3068
sg19
I10
sg20
I5
sbsS'3aee5e5c'
p3069
(icore
Match
p3070
(dp3071
g6
(lp3072
VU0JBNHJ3X
p3073
aVU0HTPUK8R
p3074
asg10
(lp3075
VU0J0XLJUD
p3076
aVU0HTVTLBS
p3077
asg14
g15
(S'\x07\xe0\x0c\x08\x0f;\x1d\x00\x8c\x12'
p3078
tp3079
Rp3080
sg19
I2
sg20
I10
sbsS'9a35c698'
p3081
(icore
Match
p3082
(dp3083
g6
(lp3084
VU0HTRQ5HQ
p3085
aVU07V0F5AS
p3086
asg10
(lp3087
VU0J8ETRH7
p3088
aVU0JBNHJ3X
p3089
asg14
g15
(S'\x07\xe0\x08\x0f\x0f.\x0c\x03\x1c\xee'
p3090
tp3091
Rp3092
sg19
I10
sg20
I5
sbsS'a94835e2'
p3093
(icore
Match
p3094
(dp3095
g6
(lp3096
VU0KA76231
p3097
aVU0JBNHJ3X
p3098
asg10
(lp3099
VU0HTRQ5HQ
p3100
aVU0J8ETRH7
p3101
asg14
g15
(S'\x07\xe0\x0b\x12\x0f3\x0c\x0c\xcc\t'
p3102
tp3103
Rp3104
sg19
I10
sg20
I6
sbsS'4f02e294'
p3105
(icore
Match
p3106
(dp3107
g6
(lp3108
VU0HTVTLBS
p3109
aVU0J0XLJUD
p3110
asg10
(lp3111
VU0HTJ2DK6
p3112
aVU0HTSHTR9
p3113
asg14
g15
(S'\x07\xe0\n\x0e\x0b6\x1b\x00\x15j'
p3114
tp3115
Rp3116
sg19
I4
sg20
I10
sbsS'9fc94552'
p3117
(icore
Match
p3118
(dp3119
g6
(lp3120
VU0HTVEJKC
p3121
aVU0KA76231
p3122
asg10
(lp3123
VU0HTPM4P8
p3124
aVU0HTVTLBS
p3125
asg14
g15
(S'\x07\xe0\x07\x1b\x10%\x0e\x06-\xb5'
p3126
tp3127
Rp3128
sg19
I8
sg20
I10
sbsS'04b1c287'
p3129
(icore
Match
p3130
(dp3131
g6
(lp3132
VU0KCZ16LT
p3133
aVU0HTSHTR9
p3134
asg10
(lp3135
VU0HTPS3JS
p3136
aVU0JBNHJ3X
p3137
asg14
g15
(S'\x07\xe0\x0c\x17\r9\x03\x01\x15\x8d'
p3138
tp3139
Rp3140
sg19
I10
sg20
I8
sbsS'915961d3'
p3141
(icore
Match
p3142
(dp3143
g6
(lp3144
VU0J8ETRH7
p3145
aVU0JNVCVRT
p3146
asg10
(lp3147
VU0HTRQ5HQ
p3148
aVU1CUW4Z7S
p3149
asg14
g15
(S'\x07\xe0\x0b\x12\x0e&\x19\x04\x92S'
p3150
tp3151
Rp3152
sg19
I1
sg20
I10
sbsS'484bc953'
p3153
(icore
Match
p3154
(dp3155
g6
(lp3156
VU0KA76231
p3157
aVU0HTVTLBS
p3158
asg10
(lp3159
VU0HTSHTR9
p3160
aVU0JBNHJ3X
p3161
asg14
g15
(S'\x07\xe0\n\x04\x0b\x13#\x01\xb8\xd5'
p3162
tp3163
Rp3164
sg19
I10
sg20
I6
sbsS'ba19de95'
p3165
(icore
Match
p3166
(dp3167
g6
(lp3168
VU0J8ETRH7
p3169
aVU0KCZ16LT
p3170
asg10
(lp3171
VU1CUW4Z7S
p3172
aVU0HTPS3JS
p3173
asg14
g15
(S'\x07\xe0\x0b\x0f\x0f\x1b\x08\r;&'
p3174
tp3175
Rp3176
sg19
I6
sg20
I10
sbsS'1b4d5078'
p3177
(icore
Match
p3178
(dp3179
g6
(lp3180
VU0KCZ16LT
p3181
aVU0J8ETRH7
p3182
asg10
(lp3183
VU0HTVTLBS
p3184
aVU0HTPM4P8
p3185
asg14
g15
(S'\x07\xe0\x0b\x10\x0f1&\x02\x14i'
p3186
tp3187
Rp3188
sg19
I10
sg20
I8
sbsS'bf5ea5ad'
p3189
(icore
Match
p3190
(dp3191
g6
(lp3192
VU0HTQJMHN
p3193
aVU0HTR4KRT
p3194
asg10
(lp3195
VU0HTPM4P8
p3196
aVU0HTVTLBS
p3197
asg14
g15
(S'\x07\xe0\n\x06\x0f1\x04\x01`U'
p3198
tp3199
Rp3200
sg19
I10
sg20
I6
sbsS'bf507f27'
p3201
(icore
Match
p3202
(dp3203
g6
(lp3204
VU0KCZ16LT
p3205
aVU1CUW4Z7S
p3206
asg10
(lp3207
VU0JBNHJ3X
p3208
aVU0KA76231
p3209
asg14
g15
(S"\x07\xe0\x0b\x1c\x0f,'\x0c\xed\x8f"
p3210
tp3211
Rp3212
sg19
I10
sg20
I9
sbsS'a18f5cbe'
p3213
(icore
Match
p3214
(dp3215
g6
(lp3216
VU0KA76231
p3217
aVU1CUW4Z7S
p3218
asg10
(lp3219
VU0J13UGAF
p3220
aVU0JBNHJ3X
p3221
asg14
g15
(S'\x07\xe0\t\x17\x10\x04\x1d\n^\x1d'
p3222
tp3223
Rp3224
sg19
I10
sg20
I7
sbsS'e26488a6'
p3225
(icore
Match
p3226
(dp3227
g6
(lp3228
VU0HTVEJKC
p3229
aVU0J0XLJUD
p3230
asg10
(lp3231
VU0HTJ2DK6
p3232
aVU0HTPS3JS
p3233
asg14
g15
(S'\x07\xe0\x0c\x02\x10\x1b#\x00\x18\xe6'
p3234
tp3235
Rp3236
sg19
I7
sg20
I10
sbsS'8c74dc24'
p3237
(icore
Match
p3238
(dp3239
g6
(lp3240
VU0HTJ2DK6
p3241
aVU0HTQ6XQQ
p3242
asg10
(lp3243
VU1CUW4Z7S
p3244
aVU0J8ETRH7
p3245
asg14
g15
(S"\x07\xe0\t\t\x11\x13'\ta\xce"
p3246
tp3247
Rp3248
sg19
I10
sg20
I6
sbsS'48975f89'
p3249
(icore
Match
p3250
(dp3251
g6
(lp3252
VU0HTVEJKC
p3253
aVU1CUW4Z7S
p3254
asg10
(lp3255
VU0J8ETRH7
p3256
aVU0J13UGAF
p3257
asg14
g15
(S'\x07\xe0\t\x08\x0c\x1f\x0f\x06\x03\xef'
p3258
tp3259
Rp3260
sg19
I10
sg20
I7
sbsS'8414ee98'
p3261
(icore
Match
p3262
(dp3263
g6
(lp3264
VU0KCZ16LT
p3265
aVU0HTSHTR9
p3266
asg10
(lp3267
VU0HTR4KRT
p3268
aVU0HTPS3JS
p3269
asg14
g15
(S'\x07\xe0\x0c\x0f\r3\x1c\x0b\xdc{'
p3270
tp3271
Rp3272
sg19
I10
sg20
I9
sbsS'eb2ed8ac'
p3273
(icore
Match
p3274
(dp3275
g6
(lp3276
VU0HTPS3JS
p3277
aVU0HTQ6XQQ
p3278
asg10
(lp3279
VU0HTQJMHN
p3280
aVU0HTVTLBS
p3281
asg14
g15
(S'\x07\xe0\x08\x18\x10*\r\x03jr'
p3282
tp3283
Rp3284
sg19
I10
sg20
I3
sbsS'f661ccd5'
p3285
(icore
Match
p3286
(dp3287
g6
(lp3288
VU1CUW4Z7S
p3289
aVU0J8ETRH7
p3290
asg10
(lp3291
VU0J13UGAF
p3292
aVU0KA76231
p3293
asg14
g15
(S'\x07\xe0\x0b\x04\x0e\x02\x1d\r\x86\xaa'
p3294
tp3295
Rp3296
sg19
I6
sg20
I10
sbsS'1519ffb3'
p3297
(icore
Match
p3298
(dp3299
g6
(lp3300
VU0JBNHJ3X
p3301
aVU1CUW4Z7S
p3302
asg10
(lp3303
VU0KCZ16LT
p3304
aVU0J8ETRH7
p3305
asg14
g15
(S'\x07\xe0\x0b\x15\x0f"-\x0e\x0ex'
p3306
tp3307
Rp3308
sg19
I10
sg20
I2
sbsS'32407013'
p3309
(icore
Match
p3310
(dp3311
g6
(lp3312
VU0HTVTLBS
p3313
aVU0HTSHTR9
p3314
asg10
(lp3315
VU0HTPS3JS
p3316
aVU0HTJ2DK6
p3317
asg14
g15
(S'\x07\xe0\x0c\x01\x0c\x08\r\x07H\xd6'
p3318
tp3319
Rp3320
sg19
I10
sg20
I8
sbsS'688e8b94'
p3321
(icore
Match
p3322
(dp3323
g6
(lp3324
VU0HTPS3JS
p3325
aVU0JBNHJ3X
p3326
asg10
(lp3327
VU0J8ETRH7
p3328
aVU0HTVEJKC
p3329
asg14
g15
(S'\x07\xe0\x07\r\x10\x00\x1a\x0cT\xd8'
p3330
tp3331
Rp3332
sg19
I10
sg20
I4
sbsS'fffa0bdf'
p3333
(icore
Match
p3334
(dp3335
g6
(lp3336
VU0JBNHJ3X
p3337
aVU0HTRQ5HQ
p3338
asg10
(lp3339
VU0KCZ16LT
p3340
aVU0J8ETRH7
p3341
asg14
g15
(S'\x07\xe0\x07\x14\x0e\x08\x02\x08\xc5\xc7'
p3342
tp3343
Rp3344
sg19
I5
sg20
I10
sbsS'020fef9c'
p3345
(icore
Match
p3346
(dp3347
g6
(lp3348
VU0HTR4KRT
p3349
aVU0HTVEJKC
p3350
asg10
(lp3351
VU0HTJ2DK6
p3352
aVU0HTPM4P8
p3353
asg14
g15
(S'\x07\xe0\n\x15\x0b\x1b\x0f\x01\t\xaf'
p3354
tp3355
Rp3356
sg19
I9
sg20
I10
sbsS'f10decd5'
p3357
(icore
Match
p3358
(dp3359
g6
(lp3360
VU0JBNHJ3X
p3361
aVU0J13UGAF
p3362
asg10
(lp3363
VU0J8ETRH7
p3364
aVU0HTVTLBS
p3365
asg14
g15
(S'\x07\xe0\x07\x19\x0b\x01$\x00W&'
p3366
tp3367
Rp3368
sg19
I8
sg20
I10
sbsS'5076c00b'
p3369
(icore
Match
p3370
(dp3371
g6
(lp3372
VU1CUW4Z7S
p3373
aVU0KA76231
p3374
asg10
(lp3375
VU0HTSHTR9
p3376
aVU0JBNHJ3X
p3377
asg14
g15
(S'\x07\xe0\x0c\x01\x10\x0f\x19\x04p\x02'
p3378
tp3379
Rp3380
sg19
I5
sg20
I10
sbsS'9f2b8d4a'
p3381
(icore
Match
p3382
(dp3383
g6
(lp3384
VU0HTVTLBS
p3385
aVU0HTQ6XQQ
p3386
asg10
(lp3387
VU0HTVEJKC
p3388
aVU0J8ETRH7
p3389
asg14
g15
(S'\x07\xe0\x0b\x15\x0f"3\x03d\xc0'
p3390
tp3391
Rp3392
sg19
I10
sg20
I2
sbsS'e8ddcfe6'
p3393
(icore
Match
p3394
(dp3395
g6
(lp3396
VU0HTPM4P8
p3397
aVU0JBNHJ3X
p3398
asg10
(lp3399
VU0KA76231
p3400
aVU0J8ETRH7
p3401
asg14
g15
(S'\x07\xe0\x08\x03\x11\x0e\x11\x02\xd7\n'
p3402
tp3403
Rp3404
sg19
I10
sg20
I9
sbsS'ba01ceaa'
p3405
(icore
Match
p3406
(dp3407
g6
(lp3408
VU0KCZ16LT
p3409
aVU0KA76231
p3410
asg10
(lp3411
VU0JBNHJ3X
p3412
aVU1CUW4Z7S
p3413
asg14
g15
(S'\x07\xe0\t\x15\x0e\x1b\x14\x03r\xa8'
p3414
tp3415
Rp3416
sg19
I10
sg20
I7
sbsS'2cb82a8f'
p3417
(icore
Match
p3418
(dp3419
g6
(lp3420
VU0HTQ6XQQ
p3421
aVU0JBNHJ3X
p3422
asg10
(lp3423
VU0HTQJMHN
p3424
aVU0HTVEJKC
p3425
asg14
g15
(S"\x07\xe0\x08\x0b\x104'\x06\xef\xdf"
p3426
tp3427
Rp3428
sg19
I10
sg20
I0
sbsS'72f5e8ae'
p3429
(icore
Match
p3430
(dp3431
g6
(lp3432
VU0KA76231
p3433
aVU0HTSHTR9
p3434
asg10
(lp3435
VU0W5T83EK
p3436
aVU0J8ETRH7
p3437
asg14
g15
(S'\x07\xe0\x0c\x06\x10"\x04\x06\xf3Y'
p3438
tp3439
Rp3440
sg19
I10
sg20
I4
sbsS'96813fd1'
p3441
(icore
Match
p3442
(dp3443
g6
(lp3444
VU0KCZ16LT
p3445
aVU0JBNHJ3X
p3446
asg10
(lp3447
VU0HTPM4P8
p3448
aVU0HTJ2DK6
p3449
asg14
g15
(S'\x07\xe0\x0b\x12\x0f4\x12\x07\xb0\xcb'
p3450
tp3451
Rp3452
sg19
I9
sg20
I10
sbsS'92bf99c4'
p3453
(icore
Match
p3454
(dp3455
g6
(lp3456
VU0HTVTLBS
p3457
aVU0HTR4KRT
p3458
asg10
(lp3459
VU0HTPS3JS
p3460
aVU0KA76231
p3461
asg14
g15
(S'\x07\xe0\x0c\r\x0e\x17\x14\x02\x11\xef'
p3462
tp3463
Rp3464
sg19
I10
sg20
I7
sbsS'3e7e0a86'
p3465
(icore
Match
p3466
(dp3467
g6
(lp3468
VU0J13UGAF
p3469
aVU0HTRQ5HQ
p3470
asg10
(lp3471
VU0JBNHJ3X
p3472
aVU0J8ETRH7
p3473
asg14
g15
(S'\x07\xe0\x07\x14\x0b\x1a\t\n\xe8\x00'
p3474
tp3475
Rp3476
sg19
I9
sg20
I10
sbsS'fd66a8a7'
p3477
(icore
Match
p3478
(dp3479
g6
(lp3480
VU0J13UGAF
p3481
aVU0KA76231
p3482
asg10
(lp3483
VU1CUW4Z7S
p3484
aVU0J8ETRH7
p3485
asg14
g15
(S'\x07\xe0\t\x1c\x0b\x03\x13\x0c\x1a\x16'
p3486
tp3487
Rp3488
sg19
I10
sg20
I5
sbsS'165d4312'
p3489
(icore
Match
p3490
(dp3491
g6
(lp3492
VU0HTJ2DK6
p3493
aVU0HTVEJKC
p3494
asg10
(lp3495
VU0HTVTLBS
p3496
aVU0KCZ16LT
p3497
asg14
g15
(S'\x07\xe0\t\x05\n\x1d2\x04\xb0s'
p3498
tp3499
Rp3500
sg19
I9
sg20
I10
sbsS'0fb9aaf9'
p3501
(icore
Match
p3502
(dp3503
g6
(lp3504
VU0HTJ2DK6
p3505
aVU0J0XLJUD
p3506
asg10
(lp3507
VU0KA76231
p3508
aVU0HTVTLBS
p3509
asg14
g15
(S'\x07\xe0\x0b\x1d\x0e"\x13\x02\xc1\xa0'
p3510
tp3511
Rp3512
sg19
I7
sg20
I10
sbsS'08c6a193'
p3513
(icore
Match
p3514
(dp3515
g6
(lp3516
VU0J8ETRH7
p3517
aVU0HTSHTR9
p3518
asg10
(lp3519
VU0JBNHJ3X
p3520
aVU1CUW4Z7S
p3521
asg14
g15
(S'\x07\xe0\x07\x0c\x11\x032\r\x05\xdd'
p3522
tp3523
Rp3524
sg19
I10
sg20
I7
sbsS'70f0a128'
p3525
(icore
Match
p3526
(dp3527
g6
(lp3528
VU0KA76231
p3529
aVU1CUW4Z7S
p3530
asg10
(lp3531
VU0HTVTLBS
p3532
aVU0JBNHJ3X
p3533
asg14
g15
(S'\x07\xe0\n\x0c\r0)\n\xdb\x8f'
p3534
tp3535
Rp3536
sg19
I10
sg20
I9
sbsS'8d255f62'
p3537
(icore
Match
p3538
(dp3539
g6
(lp3540
VU0HTQ6XQQ
p3541
aVU0HTJ2DK6
p3542
asg10
(lp3543
VU0HTQJMHN
p3544
aVU0HTPUK8R
p3545
asg14
g15
(S"\x07\xe0\t\x01\x0b'3\t5>"
p3546
tp3547
Rp3548
sg19
I10
sg20
I3
sbsS'f253f2ed'
p3549
(icore
Match
p3550
(dp3551
g6
(lp3552
VU0HTSHTR9
p3553
aVU0HTVTLBS
p3554
asg10
(lp3555
VU0KCZ16LT
p3556
aVU0HTR4KRT
p3557
asg14
g15
(S'\x07\xe0\x0c\x16\n8\x19\x04\x04d'
p3558
tp3559
Rp3560
sg19
I10
sg20
I8
sbsS'331ae5f8'
p3561
(icore
Match
p3562
(dp3563
g6
(lp3564
VU17V6C5K6
p3565
aVU1CUW4Z7S
p3566
asg10
(lp3567
VU0JBNHJ3X
p3568
aVU0W5T83EK
p3569
asg14
g15
(S'\x07\xe0\n\x14\x11\x149\x0e\xbd['
p3570
tp3571
Rp3572
sg19
I6
sg20
I10
sbsS'7bb9401a'
p3573
(icore
Match
p3574
(dp3575
g6
(lp3576
VU17V6C5K6
p3577
aVU0J8ETRH7
p3578
asg10
(lp3579
VU0HTRQ5HQ
p3580
aVU0W5T83EK
p3581
asg14
g15
(S'\x07\xe0\x08\x1a\x105\x1f\x0bv\x1d'
p3582
tp3583
Rp3584
sg19
I7
sg20
I10
sbsS'08e78164'
p3585
(icore
Match
p3586
(dp3587
g6
(lp3588
VU0KCZ16LT
p3589
aVU0HTRQ5HQ
p3590
asg10
(lp3591
VU0JBNHJ3X
p3592
aVU0J8ETRH7
p3593
asg14
g15
(S'\x07\xe0\x0c\x02\x109\x13\x00v\x8c'
p3594
tp3595
Rp3596
sg19
I10
sg20
I5
sbsS'68a84cfd'
p3597
(icore
Match
p3598
(dp3599
g6
(lp3600
VU0J0XLJUD
p3601
aVU0JBNHJ3X
p3602
asg10
(lp3603
VU0HTJ2DK6
p3604
aVU0HTVTLBS
p3605
asg14
g15
(S'\x07\xe0\x08\x12\x0c\r\x03\x08\x0bS'
p3606
tp3607
Rp3608
sg19
I9
sg20
I10
sbsS'e43736be'
p3609
(icore
Match
p3610
(dp3611
g6
(lp3612
VU0HTJ2DK6
p3613
aVU0HTSHTR9
p3614
asg10
(lp3615
VU0KA76231
p3616
aVU0JBNHJ3X
p3617
asg14
g15
(S'\x07\xe0\x0b\x02\r5\x13\x03\xe7\x8f'
p3618
tp3619
Rp3620
sg19
I10
sg20
I9
sbsS'9582059f'
p3621
(icore
Match
p3622
(dp3623
g6
(lp3624
VU0HTVEJKC
p3625
aVU0J0XLJUD
p3626
asg10
(lp3627
VU0HTQJMHN
p3628
aVU0JBNHJ3X
p3629
asg14
g15
(S'\x07\xe0\t\x16\x11\x1b\x1d\x0b\xd9\xa1'
p3630
tp3631
Rp3632
sg19
I10
sg20
I4
sbsS'd28682c7'
p3633
(icore
Match
p3634
(dp3635
g6
(lp3636
VU0JBNHJ3X
p3637
aVU0HTVTLBS
p3638
asg10
(lp3639
VU0KA76231
p3640
aVU0KCZ16LT
p3641
asg14
g15
(S'\x07\xe0\x0b\x0e\x10\x17#\x01~\xd4'
p3642
tp3643
Rp3644
sg19
I10
sg20
I4
sbsS'9ed3d044'
p3645
(icore
Match
p3646
(dp3647
g6
(lp3648
VU0HTSHTR9
p3649
aVU0J0XLJUD
p3650
asg10
(lp3651
VU0JBNHJ3X
p3652
asg14
g15
(S'\x07\xe0\x08\t\x0f)\x13\x07\x99u'
p3653
tp3654
Rp3655
sg19
I9
sg20
I10
sbsS'd1290a26'
p3656
(icore
Match
p3657
(dp3658
g6
(lp3659
VU0J0XLJUD
p3660
aVU17V6C5K6
p3661
asg10
(lp3662
VU0JBNHJ3X
p3663
aVU0W5T83EK
p3664
asg14
g15
(S'\x07\xe0\x07\x1a\n\x17.\x08\xe2\x80'
p3665
tp3666
Rp3667
sg19
I4
sg20
I10
sbsS'1666095f'
p3668
(icore
Match
p3669
(dp3670
g6
(lp3671
VU0HTVTLBS
p3672
aVU0HTJ2DK6
p3673
asg10
(lp3674
VU0HTPM4P8
p3675
aVU0JBNHJ3X
p3676
asg14
g15
(S'\x07\xe0\n\x11\x0b\x13\x15\x04\xff!'
p3677
tp3678
Rp3679
sg19
I10
sg20
I5
sbsS'468f3a4f'
p3680
(icore
Match
p3681
(dp3682
g6
(lp3683
VU1CUW4Z7S
p3684
aVU07V0F5AS
p3685
asg10
(lp3686
VU0J13UGAF
p3687
aVU0KA76231
p3688
asg14
g15
(S'\x07\xe0\x08\t\x0f\x15;\x0bVu'
p3689
tp3690
Rp3691
sg19
I10
sg20
I7
sbsS'89c01d07'
p3692
(icore
Match
p3693
(dp3694
g6
(lp3695
VU0J8ETRH7
p3696
aVU0JBNHJ3X
p3697
asg10
(lp3698
VU0KA76231
p3699
aVU0KCZ16LT
p3700
asg14
g15
(S'\x07\xe0\x0c\t\x11\x1f\n\x04\xa6\xe4'
p3701
tp3702
Rp3703
sg19
I10
sg20
I9
sbsS'3ab3012c'
p3704
(icore
Match
p3705
(dp3706
g6
(lp3707
VU0HTQJMHN
p3708
aVU0HTPM4P8
p3709
asg10
(lp3710
VU0HTVEJKC
p3711
aVU0JBNHJ3X
p3712
asg14
g15
(S'\x07\xe0\x08\x12\x11\x00\n\n\xf11'
p3713
tp3714
Rp3715
sg19
I5
sg20
I10
sbsS'127fd721'
p3716
(icore
Match
p3717
(dp3718
g6
(lp3719
VU1CUW4Z7S
p3720
aVU0KA76231
p3721
asg10
(lp3722
VU0JBNHJ3X
p3723
aVU0J8ETRH7
p3724
asg14
g15
(S'\x07\xe0\t\x1d\x10\x01;\x08\x90\xce'
p3725
tp3726
Rp3727
sg19
I10
sg20
I6
sbsS'a80d4cf9'
p3728
(icore
Match
p3729
(dp3730
g6
(lp3731
VU17V6C5K6
p3732
aVU0W5T83EK
p3733
asg10
(lp3734
VU0HTPM4P8
p3735
aVU0HTQ6XQQ
p3736
asg14
g15
(S'\x07\xe0\x08\x1a\x12\t\x05\x0e>\xfe'
p3737
tp3738
Rp3739
sg19
I10
sg20
I9
sbsS'cc441871'
p3740
(icore
Match
p3741
(dp3742
g6
(lp3743
VU0JBNHJ3X
p3744
aVU0J0XLJUD
p3745
asg10
(lp3746
VU0HTQ6XQQ
p3747
aVU0KA76231
p3748
asg14
g15
(S'\x07\xe0\x0c\x0c\x115;\x0eS\x90'
p3749
tp3750
Rp3751
sg19
I10
sg20
I4
sbsS'7c450aaa'
p3752
(icore
Match
p3753
(dp3754
g6
(lp3755
VU0HTVTLBS
p3756
aVU0HTQJMHN
p3757
asg10
(lp3758
VU0HTPM4P8
p3759
aVU0JBNHJ3X
p3760
asg14
g15
(S'\x07\xe0\x0c\r\x10\x08*\x03\xd2\xd7'
p3761
tp3762
Rp3763
sg19
I3
sg20
I10
sbsS'ccbf2e9b'
p3764
(icore
Match
p3765
(dp3766
g6
(lp3767
VU0HTJ2DK6
p3768
aVU0J0XLJUD
p3769
asg10
(lp3770
VU0HTQ6XQQ
p3771
aVU0HTVTLBS
p3772
asg14
g15
(S'\x07\xe0\x0b\x1c\x12\x07\x1b\x0c\x88>'
p3773
tp3774
Rp3775
sg19
I5
sg20
I10
sbsS'621b156b'
p3776
(icore
Match
p3777
(dp3778
g6
(lp3779
VU0J13UGAF
p3780
aVU1CUW4Z7S
p3781
asg10
(lp3782
VU0KCZ16LT
p3783
aVU0J8ETRH7
p3784
asg14
g15
(S'\x07\xe0\t\x02\x10/#\x0c\xfen'
p3785
tp3786
Rp3787
sg19
I10
sg20
I9
sbsS'd13d0457'
p3788
(icore
Match
p3789
(dp3790
g6
(lp3791
VU0J0XLJUD
p3792
aVU0HTVTLBS
p3793
asg10
(lp3794
VU0HTPM4P8
p3795
aVU0HTR4KRT
p3796
asg14
g15
(S'\x07\xe0\x0c\x07\x12\x0c\x1a\x0bzN'
p3797
tp3798
Rp3799
sg19
I9
sg20
I10
sbsS'28a61056'
p3800
(icore
Match
p3801
(dp3802
g6
(lp3803
VU17V6C5K6
p3804
aVU0J8ETRH7
p3805
asg10
(lp3806
VU0JBNHJ3X
p3807
aVU0HTPM4P8
p3808
asg14
g15
(S'\x07\xe0\x08\x16\x11\n\x10\x0b8m'
p3809
tp3810
Rp3811
sg19
I5
sg20
I10
sbsS'54ca2487'
p3812
(icore
Match
p3813
(dp3814
g6
(lp3815
VU0KA76231
p3816
aVU0J8ETRH7
p3817
asg10
(lp3818
VU0HTVEJKC
p3819
aVU07V0F5AS
p3820
asg14
g15
(S'\x07\xe0\x07\x0f\x0f\x1b:\x0c\xb1)'
p3821
tp3822
Rp3823
sg19
I10
sg20
I8
sbsS'887067d7'
p3824
(icore
Match
p3825
(dp3826
g6
(lp3827
VU0HTQJMHN
p3828
aVU0HTVEJKC
p3829
asg10
(lp3830
VU0J0XLJUD
p3831
aVU0HTQ6XQQ
p3832
asg14
g15
(S'\x07\xe0\x08\x08\x11)\x15\t\xe79'
p3833
tp3834
Rp3835
sg19
I10
sg20
I8
sbsS'45d42338'
p3836
(icore
Match
p3837
(dp3838
g6
(lp3839
VU0HTR4KRT
p3840
aVU0HTQJMHN
p3841
asg10
(lp3842
VU0HTVEJKC
p3843
aVU0HTVTLBS
p3844
asg14
g15
(S'\x07\xe0\n\x13\x0e 6\n`D'
p3845
tp3846
Rp3847
sg19
I7
sg20
I10
sbsS'c1b331b5'
p3848
(icore
Match
p3849
(dp3850
g6
(lp3851
VU0HTSHTR9
p3852
aVU0J0XLJUD
p3853
asg10
(lp3854
VU0HTVEJKC
p3855
aVU0HTPS3JS
p3856
asg14
g15
(S'\x07\xe0\x0c\x16\x0b!\x00\t\x02\xcf'
p3857
tp3858
Rp3859
sg19
I2
sg20
I10
sbsS'1eb74dba'
p3860
(icore
Match
p3861
(dp3862
g6
(lp3863
VU0KA76231
p3864
aVU0HTQ6XQQ
p3865
asg10
(lp3866
VU0JBNHJ3X
p3867
aVU0J0XLJUD
p3868
asg14
g15
(S'\x07\xe0\x07\x1d\x12\t+\x0b0\xcd'
p3869
tp3870
Rp3871
sg19
I8
sg20
I10
sbsS'ed0d1c10'
p3872
(icore
Match
p3873
(dp3874
g6
(lp3875
VU0HTPM4P8
p3876
aVU0J0XLJUD
p3877
asg10
(lp3878
VU0HTVEJKC
p3879
aVU0HTPS3JS
p3880
asg14
g15
(S'\x07\xe0\x0c\r\x10,*\x08j\x87'
p3881
tp3882
Rp3883
sg19
I10
sg20
I7
sbsS'da49cbee'
p3884
(icore
Match
p3885
(dp3886
g6
(lp3887
VU0J8ETRH7
p3888
aVU0JBNHJ3X
p3889
asg10
(lp3890
VU0KCZ16LT
p3891
aVU0HTQJMHN
p3892
asg14
g15
(S'\x07\xe0\t\x1c\x10\x17\x01\x06\x843'
p3893
tp3894
Rp3895
sg19
I7
sg20
I10
sbsS'5ddaa5e5'
p3896
(icore
Match
p3897
(dp3898
g6
(lp3899
VU0J13UGAF
p3900
aVU0HTRQ5HQ
p3901
asg10
(lp3902
VU0KCZ16LT
p3903
aVU0J8ETRH7
p3904
asg14
g15
(S'\x07\xe0\x0c\x02\x0c\x00!\x02\xbe\xce'
p3905
tp3906
Rp3907
sg19
I10
sg20
I5
sbsS'ec15345d'
p3908
(icore
Match
p3909
(dp3910
g6
(lp3911
VU0J8ETRH7
p3912
aVU0HTSHTR9
p3913
asg10
(lp3914
VU0JBNHJ3X
p3915
aVU1CUW4Z7S
p3916
asg14
g15
(S'\x07\xe0\x07\x0c\x11\x03:\t\xbdA'
p3917
tp3918
Rp3919
sg19
I5
sg20
I10
sbsS'ff343944'
p3920
(icore
Match
p3921
(dp3922
g6
(lp3923
VU0HTR4KRT
p3924
aVU0HTQJMHN
p3925
asg10
(lp3926
VU0HTSHTR9
p3927
aVU0JBNHJ3X
p3928
asg14
g15
(S'\x07\xe0\x0c\x07\r\x0b5\x088r'
p3929
tp3930
Rp3931
sg19
I10
sg20
I4
sbsS'82d35cc0'
p3932
(icore
Match
p3933
(dp3934
g6
(lp3935
VU0KCZ16LT
p3936
aVU0HTVTLBS
p3937
asg10
(lp3938
VU0HTSHTR9
p3939
aVU0JBNHJ3X
p3940
asg14
g15
(S'\x07\xe0\x0b\x16\x0b$*\x01\xcbW'
p3941
tp3942
Rp3943
sg19
I5
sg20
I10
sbsS'21b26721'
p3944
(icore
Match
p3945
(dp3946
g6
(lp3947
VU0HTPM4P8
p3948
aVU0J0XLJUD
p3949
asg10
(lp3950
VU0J8ETRH7
p3951
aVU0JBNHJ3X
p3952
asg14
g15
(S'\x07\xe0\x0c\x0f\x12\x1a\x08\x04x\x92'
p3953
tp3954
Rp3955
sg19
I5
sg20
I10
sbsS'ba45dd6f'
p3956
(icore
Match
p3957
(dp3958
g6
(lp3959
VU0J8ETRH7
p3960
aVU0HTPM4P8
p3961
asg10
(lp3962
VU0HTQJMHN
p3963
aVU0HTVTLBS
p3964
asg14
g15
(S'\x07\xe0\x08\x13\x111(\t\xe7\xdf'
p3965
tp3966
Rp3967
sg19
I9
sg20
I10
sbsS'446bef30'
p3968
(icore
Match
p3969
(dp3970
g6
(lp3971
VU17V6C5K6
p3972
aVU0JBNHJ3X
p3973
asg10
(lp3974
VU0J8ETRH7
p3975
aVU0J13UGAF
p3976
asg14
g15
(S'\x07\xe0\x07\x1a\x11\x078\x0b\xe8\x99'
p3977
tp3978
Rp3979
sg19
I10
sg20
I4
sbsS'c1209ee7'
p3980
(icore
Match
p3981
(dp3982
g6
(lp3983
VU0JBNHJ3X
p3984
aVU0J8ETRH7
p3985
asg10
(lp3986
VU0J0XLJUD
p3987
aVU0KA76231
p3988
asg14
g15
(S'\x07\xe0\n\x04\r*%\x02\xf3\x94'
p3989
tp3990
Rp3991
sg19
I5
sg20
I10
sbsS'e03aea36'
p3992
(icore
Match
p3993
(dp3994
g6
(lp3995
VU1CUW4Z7S
p3996
aVU0KCZ16LT
p3997
asg10
(lp3998
VU0J13UGAF
p3999
aVU0HTPS3JS
p4000
asg14
g15
(S'\x07\xe0\t\x1b\x11*3\x00\xb1\xfd'
p4001
tp4002
Rp4003
sg19
I10
sg20
I5
sbsS'4b2ecda0'
p4004
(icore
Match
p4005
(dp4006
g6
(lp4007
VU0HTVTLBS
p4008
aVU0HTJ2DK6
p4009
asg10
(lp4010
VU0HTPM4P8
p4011
aVU0J0XLJUD
p4012
asg14
g15
(S'\x07\xe0\x07\x14\x0b4\t\x01\xb5\xa5'
p4013
tp4014
Rp4015
sg19
I10
sg20
I7
sbsS'0d134343'
p4016
(icore
Match
p4017
(dp4018
g6
(lp4019
VU0HTVEJKC
p4020
aVU0HTSHTR9
p4021
asg10
(lp4022
VU0HTR4KRT
p4023
aVU0HTPS3JS
p4024
asg14
g15
(S'\x07\xe0\x0b\x11\x0f\x1a+\x0b\xf8\x16'
p4025
tp4026
Rp4027
sg19
I10
sg20
I6
sbsS'b3f281d9'
p4028
(icore
Match
p4029
(dp4030
g6
(lp4031
VU0HTR4KRT
p4032
aVU0J8ETRH7
p4033
asg10
(lp4034
VU0KA76231
p4035
aVU0HTVTLBS
p4036
asg14
g15
(S'\x07\xe0\x0c\x08\x11\t\x10\r\xd7\xe2'
p4037
tp4038
Rp4039
sg19
I10
sg20
I2
sbsS'ace75328'
p4040
(icore
Match
p4041
(dp4042
g6
(lp4043
VU0HTQ6XQQ
p4044
aVU0HTVTLBS
p4045
asg10
(lp4046
VU0HTSHTR9
p4047
aVU0KCZ16LT
p4048
asg14
g15
(S'\x07\xe0\x0c\x07\n-\x01\x0c}1'
p4049
tp4050
Rp4051
sg19
I10
sg20
I3
sbsS'bc1d821c'
p4052
(icore
Match
p4053
(dp4054
g6
(lp4055
VU0KA76231
p4056
aVU0HTPM4P8
p4057
asg10
(lp4058
VU0J13UGAF
p4059
aVU0J8ETRH7
p4060
asg14
g15
(S'\x07\xe0\x08\n\x0f\x1e(\n\n@'
p4061
tp4062
Rp4063
sg19
I10
sg20
I6
sbsS'6841da24'
p4064
(icore
Match
p4065
(dp4066
g6
(lp4067
VU0HTPS3JS
p4068
aVU0J8ETRH7
p4069
asg10
(lp4070
VU0HTPM4P8
p4071
aVU0HTVEJKC
p4072
asg14
g15
(S'\x07\xe0\x0c\t\x0e\x07/\n>\x19'
p4073
tp4074
Rp4075
sg19
I10
sg20
I8
sbsS'5eed823d'
p4076
(icore
Match
p4077
(dp4078
g6
(lp4079
VU0KA76231
p4080
aVU0KCZ16LT
p4081
asg10
(lp4082
VU0HTRQ5HQ
p4083
aVU0JBNHJ3X
p4084
asg14
g15
(S'\x07\xe0\x0c\x0f\x106\r\t}7'
p4085
tp4086
Rp4087
sg19
I7
sg20
I10
sbsS'9fab95e3'
p4088
(icore
Match
p4089
(dp4090
g6
(lp4091
VU0W5T83EK
p4092
aVU0JBNHJ3X
p4093
asg10
(lp4094
VU1CUW4Z7S
p4095
aVU0J8ETRH7
p4096
asg14
g15
(S'\x07\xe0\x07\x15\x0e"-\x08\xcd0'
p4097
tp4098
Rp4099
sg19
I10
sg20
I6
sbsS'82725d89'
p4100
(icore
Match
p4101
(dp4102
g6
(lp4103
VU0HTVTLBS
p4104
aVU0HTPM4P8
p4105
asg10
(lp4106
VU0HTSHTR9
p4107
aVU0HTVEJKC
p4108
asg14
g15
(S'\x07\xe0\x07\x1a\x0e2!\x0e$0'
p4109
tp4110
Rp4111
sg19
I10
sg20
I8
sbsS'e66cd0b9'
p4112
(icore
Match
p4113
(dp4114
g6
(lp4115
VU0HTQ6XQQ
p4116
aVU0J0XLJUD
p4117
asg10
(lp4118
VU0JBNHJ3X
p4119
aVU0KCZ16LT
p4120
asg14
g15
(S'\x07\xe0\t\x16\r2%\x06\xdf\x03'
p4121
tp4122
Rp4123
sg19
I6
sg20
I10
sbsS'd5990db9'
p4124
(icore
Match
p4125
(dp4126
g6
(lp4127
VU0HTVTLBS
p4128
aVU0JBNHJ3X
p4129
asg10
(lp4130
VU0HTJ2DK6
p4131
aVU0J8ETRH7
p4132
asg14
g15
(S'\x07\xe0\x08\x11\r\x06\x11\x0b\x17\x97'
p4133
tp4134
Rp4135
sg19
I10
sg20
I3
sbsS'501badcb'
p4136
(icore
Match
p4137
(dp4138
g6
(lp4139
VU0KA76231
p4140
aVU1CUW4Z7S
p4141
asg10
(lp4142
VU0J8ETRH7
p4143
aVU0JBNHJ3X
p4144
asg14
g15
(S'\x07\xe0\n\x03\x0e\x12\x07\x01i5'
p4145
tp4146
Rp4147
sg19
I10
sg20
I8
sbsS'565a3c76'
p4148
(icore
Match
p4149
(dp4150
g6
(lp4151
VU0HTVEJKC
p4152
aVU0HTSHTR9
p4153
asg10
(lp4154
VU0J0XLJUD
p4155
aVU0HTJ2DK6
p4156
asg14
g15
(S'\x07\xe0\x08\x03\x0c\t5\x0e\xab\xd4'
p4157
tp4158
Rp4159
sg19
I10
sg20
I6
sbsS'34cdcb64'
p4160
(icore
Match
p4161
(dp4162
g6
(lp4163
VU0J8ETRH7
p4164
aVU0HTVEJKC
p4165
asg10
(lp4166
VU0KA76231
p4167
aVU0JBNHJ3X
p4168
asg14
g15
(S'\x07\xe0\x0c\x07\x11\x1c/\x0b\xb3\xf7'
p4169
tp4170
Rp4171
sg19
I8
sg20
I10
sbsS'a1861c2b'
p4172
(icore
Match
p4173
(dp4174
g6
(lp4175
VU0HTVTLBS
p4176
aVU1CUW4Z7S
p4177
asg10
(lp4178
VU0KCZ16LT
p4179
aVU0J8ETRH7
p4180
asg14
g15
(S'\x07\xe0\x0c\x14\x10\x07&\t\xd8\x8e'
p4181
tp4182
Rp4183
sg19
I10
sg20
I9
sbsS'ca6dc460'
p4184
(icore
Match
p4185
(dp4186
g6
(lp4187
VU0HTQJMHN
p4188
aVU0HTRQ5HQ
p4189
asg10
(lp4190
VU0HTQ6XQQ
p4191
aVU0JBNHJ3X
p4192
asg14
g15
(S'\x07\xe0\x0b\x18\x121\x0f\x014P'
p4193
tp4194
Rp4195
sg19
I10
sg20
I6
sbsS'c6932f32'
p4196
(icore
Match
p4197
(dp4198
g6
(lp4199
VU0HTSHTR9
p4200
aVU0JBNHJ3X
p4201
asg10
(lp4202
VU0W5T83EK
p4203
aVU0J8ETRH7
p4204
asg14
g15
(S'\x07\xe0\x07\x0c\x11\x03 \x03\x1fQ'
p4205
tp4206
Rp4207
sg19
I10
sg20
I8
sbsS'db262c1e'
p4208
(icore
Match
p4209
(dp4210
g6
(lp4211
VU0HTPM4P8
p4212
aVU0HTQ6XQQ
p4213
asg10
(lp4214
VU0JBNHJ3X
p4215
aVU0HTVTLBS
p4216
asg14
g15
(S'\x07\xe0\x07\x1a\x11\x197\x00\xccz'
p4217
tp4218
Rp4219
sg19
I10
sg20
I8
sbsS'3758e77b'
p4220
(icore
Match
p4221
(dp4222
g6
(lp4223
VU1CUW4Z7S
p4224
aVU0KCZ16LT
p4225
asg10
(lp4226
VU0JBNHJ3X
p4227
aVU0J8ETRH7
p4228
asg14
g15
(S'\x07\xe0\x0b\x08\x11,\x05\x0cNz'
p4229
tp4230
Rp4231
sg19
I10
sg20
I6
sbsS'ae0eee5e'
p4232
(icore
Match
p4233
(dp4234
g6
(lp4235
VU0J13UGAF
p4236
aVU0HTRQ5HQ
p4237
asg10
(lp4238
VU0KCZ16LT
p4239
aVU0J8ETRH7
p4240
asg14
g15
(S'\x07\xe0\x0c\x02\x0c\x00(\x04t\xeb'
p4241
tp4242
Rp4243
sg19
I10
sg20
I9
sbsS'7e745291'
p4244
(icore
Match
p4245
(dp4246
g6
(lp4247
VU0HTR4KRT
p4248
aVU0J0XLJUD
p4249
asg10
(lp4250
VU0HTSHTR9
p4251
aVU0HTPM4P8
p4252
asg14
g15
(S'\x07\xe0\x0b\x17\x0b\x1b\x06\x0f\x06\xb6'
p4253
tp4254
Rp4255
sg19
I2
sg20
I10
sbsS'5414ebce'
p4256
(icore
Match
p4257
(dp4258
g6
(lp4259
VU0J0XLJUD
p4260
aVU0JBNHJ3X
p4261
asg10
(lp4262
VU0HTQJMHN
p4263
aVU0HTQ6XQQ
p4264
asg14
g15
(S'\x07\xe0\x08\x0f\x0c\x1c\x0f\x0e*!'
p4265
tp4266
Rp4267
sg19
I6
sg20
I10
sbsS'bf5b7ded'
p4268
(icore
Match
p4269
(dp4270
g6
(lp4271
VU0HTSHTR9
p4272
aVU0HTQ6XQQ
p4273
asg10
(lp4274
VU0J8ETRH7
p4275
aVU1CUW4Z7S
p4276
asg14
g15
(S'\x07\xe0\n\x18\x0e\n\x01\x01\x8b\xc1'
p4277
tp4278
Rp4279
sg19
I10
sg20
I9
sbsS'52675835'
p4280
(icore
Match
p4281
(dp4282
g6
(lp4283
VU0HTSHTR9
p4284
aVU0HTVEJKC
p4285
asg10
(lp4286
VU0834SYHL
p4287
aVU0HTPM4P8
p4288
asg14
g15
(S'\x07\xe0\x08\x04\x11#\x05\x04\x9dL'
p4289
tp4290
Rp4291
sg19
I5
sg20
I10
sbsS'ec19b214'
p4292
(icore
Match
p4293
(dp4294
g6
(lp4295
VU0HTVTLBS
p4296
aVU0HTVEJKC
p4297
asg10
(lp4298
VU0HTQJMHN
p4299
aVU0HTSHTR9
p4300
asg14
g15
(S"\x07\xe0\t\x0f\x10\x08\r\x06\x98'"
p4301
tp4302
Rp4303
sg19
I8
sg20
I10
sbsS'c7052f63'
p4304
(icore
Match
p4305
(dp4306
g6
(lp4307
VU0HTVTLBS
p4308
aVU0JBNHJ3X
p4309
asg10
(lp4310
VU0J0XLJUD
p4311
aVU0HTSHTR9
p4312
asg14
g15
(S'\x07\xe0\x07\x1d\x0e2\x16\x00t<'
p4313
tp4314
Rp4315
sg19
I5
sg20
I10
sbsS'4c73e648'
p4316
(icore
Match
p4317
(dp4318
g6
(lp4319
VU0HTPUK8R
p4320
aVU2SDVEFL0
p4321
asg10
(lp4322
VU0HTPM4P8
p4323
aVU0KCZ16LT
p4324
asg14
g15
(S'\x07\xe0\x0b\n\x0e79\t\xe0d'
p4325
tp4326
Rp4327
sg19
I10
sg20
I3
sbsS'3a03c2a1'
p4328
(icore
Match
p4329
(dp4330
g6
(lp4331
VU0HTSHTR9
p4332
aVU0J0XLJUD
p4333
asg10
(lp4334
VU0HTQJMHN
p4335
aVU0HTQ6XQQ
p4336
asg14
g15
(S'\x07\xe0\x08\n\x11\x1d!\x02\xb6x'
p4337
tp4338
Rp4339
sg19
I10
sg20
I8
sbsS'e5f9b94f'
p4340
(icore
Match
p4341
(dp4342
g6
(lp4343
VU1CUW4Z7S
p4344
aVU0KCZ16LT
p4345
asg10
(lp4346
VU0HTVTLBS
p4347
aVU0JBNHJ3X
p4348
asg14
g15
(S'\x07\xe0\t\x16\x10\x111\t\xa6\xf0'
p4349
tp4350
Rp4351
sg19
I2
sg20
I10
sbsS'd365cdc1'
p4352
(icore
Match
p4353
(dp4354
g6
(lp4355
VU0HTVEJKC
p4356
aVU0J0XLJUD
p4357
asg10
(lp4358
VU0HTQJMHN
p4359
aVU0HTVTLBS
p4360
asg14
g15
(S'\x07\xe0\x07\x14\x110\x06\x024s'
p4361
tp4362
Rp4363
sg19
I6
sg20
I10
sbsS'ed3d8f59'
p4364
(icore
Match
p4365
(dp4366
g6
(lp4367
VU0W5T83EK
p4368
aVU17V6C5K6
p4369
asg10
(lp4370
VU0HTPM4P8
p4371
aVU0J0XLJUD
p4372
asg14
g15
(S'\x07\xe0\x08\x05\x11"\n\x01\xfd\xb8'
p4373
tp4374
Rp4375
sg19
I10
sg20
I8
sbsS'957bdde5'
p4376
(icore
Match
p4377
(dp4378
g6
(lp4379
VU0J0XLJUD
p4380
aVU0HTPM4P8
p4381
asg10
(lp4382
VU0HTSHTR9
p4383
aVU0HTRQ5HQ
p4384
asg14
g15
(S'\x07\xe0\n\r\x0c\x12\x1c\x03\x92\x89'
p4385
tp4386
Rp4387
sg19
I10
sg20
I7
sbsS'c5fbb064'
p4388
(icore
Match
p4389
(dp4390
g6
(lp4391
VU0HTVTLBS
p4392
aVU0HTR4KRT
p4393
asg10
(lp4394
VU0HTSHTR9
p4395
aVU0HTJ2DK6
p4396
asg14
g15
(S'\x07\xe0\x0b\x04\r$3\n\xcce'
p4397
tp4398
Rp4399
sg19
I7
sg20
I10
sbsS'5ec55848'
p4400
(icore
Match
p4401
(dp4402
g6
(lp4403
VU0JBNHJ3X
p4404
aVU0HTJ2DK6
p4405
asg10
(lp4406
VU0J0XLJUD
p4407
aVU0HTPS3JS
p4408
asg14
g15
(S'\x07\xe0\x08\x16\x0c\x0e!\x01\x95\xb4'
p4409
tp4410
Rp4411
sg19
I10
sg20
I4
sbsS'c20de4ac'
p4412
(icore
Match
p4413
(dp4414
g6
(lp4415
VU0HTQJMHN
p4416
aVU0HTRQ5HQ
p4417
asg10
(lp4418
VU0HTQ6XQQ
p4419
aVU0JBNHJ3X
p4420
asg14
g15
(S'\x07\xe0\x0b\x18\x121-\x01]\xd8'
p4421
tp4422
Rp4423
sg19
I1
sg20
I10
sbsS'7d0069ca'
p4424
(icore
Match
p4425
(dp4426
g6
(lp4427
VU0J0XLJUD
p4428
aVU0JBNHJ3X
p4429
asg10
(lp4430
VU0HTJ2DK6
p4431
aVU0HTVEJKC
p4432
asg14
g15
(S'\x07\xe0\x0b\x18\x117:\x06y|'
p4433
tp4434
Rp4435
sg19
I6
sg20
I10
sbsS'e4234343'
p4436
(icore
Match
p4437
(dp4438
g6
(lp4439
VU0W5T83EK
p4440
aVU0HTQ6XQQ
p4441
asg10
(lp4442
VU0JBNHJ3X
p4443
aVU0J0XLJUD
p4444
asg14
g15
(S'\x07\xe0\x07\x1d\x115\x11\x00\x81\x14'
p4445
tp4446
Rp4447
sg19
I10
sg20
I4
sbsS'28170cfe'
p4448
(icore
Match
p4449
(dp4450
g6
(lp4451
VU0HTR4KRT
p4452
aVU0HTVTLBS
p4453
asg10
(lp4454
VU0HTPM4P8
p4455
aVU0HTSHTR9
p4456
asg14
g15
(S'\x07\xe0\x0b\x15\x0e\r(\x07\xc3\x19'
p4457
tp4458
Rp4459
sg19
I9
sg20
I10
sbsS'75d078c0'
p4460
(icore
Match
p4461
(dp4462
g6
(lp4463
VU0HTVTLBS
p4464
aVU0HTQ6XQQ
p4465
asg10
(lp4466
VU0J0XLJUD
p4467
aVU0HTPS3JS
p4468
asg14
g15
(S'\x07\xe0\x08\x19\x0e:9\tr('
p4469
tp4470
Rp4471
sg19
I10
sg20
I8
sbsS'd4b0f542'
p4472
(icore
Match
p4473
(dp4474
g6
(lp4475
VU0HTR4KRT
p4476
aVU0HTVTLBS
p4477
asg10
(lp4478
VU0HTSHTR9
p4479
aVU0J0XLJUD
p4480
asg14
g15
(S'\x07\xe0\x0c\r\x0b)-\x08\xf2\xc2'
p4481
tp4482
Rp4483
sg19
I10
sg20
I4
sbsS'3d060b02'
p4484
(icore
Match
p4485
(dp4486
g6
(lp4487
VU0HTQ6XQQ
p4488
aVU0J0XLJUD
p4489
asg10
(lp4490
VU0HTPM4P8
p4491
aVU0HTPS3JS
p4492
asg14
g15
(S'\x07\xe0\x0c\r\r\r\x0e\x08\xbbi'
p4493
tp4494
Rp4495
sg19
I4
sg20
I10
sbsS'b97af994'
p4496
(icore
Match
p4497
(dp4498
g6
(lp4499
VU0J8ETRH7
p4500
aVU0KA76231
p4501
asg10
(lp4502
VU0JBNHJ3X
p4503
aVU0HTVTLBS
p4504
asg14
g15
(S'\x07\xe0\n\x0b\x0b\x04\x19\x08\xf7p'
p4505
tp4506
Rp4507
sg19
I9
sg20
I10
sbsS'bffbcd9c'
p4508
(icore
Match
p4509
(dp4510
g6
(lp4511
VU0KA76231
p4512
aVU0J13UGAF
p4513
asg10
(lp4514
VU07V0F5AS
p4515
aVU0J8ETRH7
p4516
asg14
g15
(S'\x07\xe0\x08\x0c\x0c1\x17\x01\xb6\xea'
p4517
tp4518
Rp4519
sg19
I8
sg20
I10
sbsS'ef0256b7'
p4520
(icore
Match
p4521
(dp4522
g6
(lp4523
VU0J0XLJUD
p4524
aVU0HTQJMHN
p4525
asg10
(lp4526
VU0KCZ16LT
p4527
aVU0J13UGAF
p4528
asg14
g15
(S'\x07\xe0\t\x02\x10,;\x0e]\x9d'
p4529
tp4530
Rp4531
sg19
I1
sg20
I10
sbsS'948f8890'
p4532
(icore
Match
p4533
(dp4534
g6
(lp4535
VU0KA76231
p4536
aVU0JBNHJ3X
p4537
asg10
(lp4538
VU0HTPM4P8
p4539
aVU1CUW4Z7S
p4540
asg14
g15
(S'\x07\xe0\n\x1a\x0e\x1b\x13\x06\x1fc'
p4541
tp4542
Rp4543
sg19
I10
sg20
I7
sbsS'a8b9859e'
p4544
(icore
Match
p4545
(dp4546
g6
(lp4547
VU0HTPM4P8
p4548
aVU07V0F5AS
p4549
asg10
(lp4550
VU0JBNHJ3X
p4551
aVU0J8ETRH7
p4552
asg14
g15
(S'\x07\xe0\x07\x1d\x10\x18\x07\x03/\xf2'
p4553
tp4554
Rp4555
sg19
I8
sg20
I10
sbsS'4ce6e094'
p4556
(icore
Match
p4557
(dp4558
g6
(lp4559
VU0HTJ2DK6
p4560
aVU0J8ETRH7
p4561
asg10
(lp4562
VU0J13UGAF
p4563
aVU0JBNHJ3X
p4564
asg14
g15
(S'\x07\xe0\x07\x14\x0f!4\x06\x93\xa3'
p4565
tp4566
Rp4567
sg19
I10
sg20
I7
sbsS'3abe8ab1'
p4568
(icore
Match
p4569
(dp4570
g6
(lp4571
VU1CUW4Z7S
p4572
aVU17V6C5K6
p4573
asg10
(lp4574
VU0HTPM4P8
p4575
aVU0HTRQ5HQ
p4576
asg14
g15
(S'\x07\xe0\x07\x1c\x12\x00\x12\x07\xd9,'
p4577
tp4578
Rp4579
sg19
I10
sg20
I4
sbsS'd2b7c4ca'
p4580
(icore
Match
p4581
(dp4582
g6
(lp4583
VU1CUW4Z7S
p4584
aVU0HTVEJKC
p4585
asg10
(lp4586
VU0KCZ16LT
p4587
aVU0KA76231
p4588
asg14
g15
(S'\x07\xe0\t\x1e\x0b\x11\x0b\x06\x16T'
p4589
tp4590
Rp4591
sg19
I7
sg20
I10
sbsS'e99e51f3'
p4592
(icore
Match
p4593
(dp4594
g6
(lp4595
VU0JBNHJ3X
p4596
aVU1CUW4Z7S
p4597
asg10
(lp4598
VU0HTPS3JS
p4599
aVU0HTVTLBS
p4600
asg14
g15
(S'\x07\xe0\x0c\x17\x0c#\x1b\x02\x98\xb3'
p4601
tp4602
Rp4603
sg19
I7
sg20
I10
sbsS'8dd1c062'
p4604
(icore
Match
p4605
(dp4606
g6
(lp4607
VU0KA76231
p4608
aVU0HTVEJKC
p4609
asg10
(lp4610
VU0KCZ16LT
p4611
aVU0JBNHJ3X
p4612
asg14
g15
(S'\x07\xe0\t\x0e\x0e :\x0cX\x18'
p4613
tp4614
Rp4615
sg19
I10
sg20
I9
sbsS'83f0ad95'
p4616
(icore
Match
p4617
(dp4618
g6
(lp4619
VU0HTPS3JS
p4620
aVU0HTVEJKC
p4621
asg10
(lp4622
VU0HTPM4P8
p4623
aVU0J8ETRH7
p4624
asg14
g15
(S'\x07\xe0\x0c\t\x0e\x06\x02\x00\xd9\xe6'
p4625
tp4626
Rp4627
sg19
I10
sg20
I4
sbsS'1a67477b'
p4628
(icore
Match
p4629
(dp4630
g6
(lp4631
VU0HTVEJKC
p4632
aVU0J0XLJUD
p4633
asg10
(lp4634
VU0HTPS3JS
p4635
aVU0KA76231
p4636
asg14
g15
(S'\x07\xe0\x0c\x0f\x12\x19\x19\x06\x18\x94'
p4637
tp4638
Rp4639
sg19
I7
sg20
I10
sbsS'e1221a6b'
p4640
(icore
Match
p4641
(dp4642
g6
(lp4643
VU0HTVTLBS
p4644
aVU0HTQJMHN
p4645
asg10
(lp4646
VU0KA76231
p4647
aVU0J8ETRH7
p4648
asg14
g15
(S'\x07\xe0\x0c\x05\x10\x1d\x16\r\x03y'
p4649
tp4650
Rp4651
sg19
I10
sg20
I8
sbsS'62b3ba5b'
p4652
(icore
Match
p4653
(dp4654
g6
(lp4655
VU0HTPM4P8
p4656
aVU0J0XLJUD
p4657
asg10
(lp4658
VU0HTPS3JS
p4659
aVU0KA76231
p4660
asg14
g15
(S'\x07\xe0\x0c\x0f\x12\x192\x08\x97\xc7'
p4661
tp4662
Rp4663
sg19
I6
sg20
I10
sbsS'a5140fc4'
p4664
(icore
Match
p4665
(dp4666
g6
(lp4667
VU0W5T83EK
p4668
aVU0HTQ6XQQ
p4669
asg10
(lp4670
VU0JBNHJ3X
p4671
aVU0J0XLJUD
p4672
asg14
g15
(S'\x07\xe0\x07\x1d\x1144\x03B\xb0'
p4673
tp4674
Rp4675
sg19
I10
sg20
I7
sbsS'cf585e76'
p4676
(icore
Match
p4677
(dp4678
g6
(lp4679
VU0HTVEJKC
p4680
aVU0HTQ6XQQ
p4681
asg10
(lp4682
VU0HTSHTR9
p4683
aVU0JBNHJ3X
p4684
asg14
g15
(S'\x07\xe0\x07\x13\x12\x08\x10\x08\x8f.'
p4685
tp4686
Rp4687
sg19
I8
sg20
I10
sbsS'974d7755'
p4688
(icore
Match
p4689
(dp4690
g6
(lp4691
VU0HTVTLBS
p4692
aVU0KA76231
p4693
asg10
(lp4694
VU0JBNHJ3X
p4695
aVU1CUW4Z7S
p4696
asg14
g15
(S'\x07\xe0\t\x10\x11\x0b\x0f\x06\x00K'
p4697
tp4698
Rp4699
sg19
I8
sg20
I10
sbsS'7451bf35'
p4700
(icore
Match
p4701
(dp4702
g6
(lp4703
VU0HTVTLBS
p4704
aVU0HTJ2DK6
p4705
asg10
(lp4706
VU0HTSHTR9
p4707
aVU0HTVEJKC
p4708
asg14
g15
(S'\x07\xe0\n\x18\t6\x10\n\xa9B'
p4709
tp4710
Rp4711
sg19
I10
sg20
I8
sbsS'95dc08c4'
p4712
(icore
Match
p4713
(dp4714
g6
(lp4715
VU0HTVTLBS
p4716
aVU0J0XLJUD
p4717
asg10
(lp4718
VU0JBNHJ3X
p4719
aVU0KCZ16LT
p4720
asg14
g15
(S'\x07\xe0\t\x15\n*"\nv\xde'
p4721
tp4722
Rp4723
sg19
I10
sg20
I5
sbsS'68321e91'
p4724
(icore
Match
p4725
(dp4726
g6
(lp4727
VU0KA76231
p4728
aVU1CUW4Z7S
p4729
asg10
(lp4730
VU0JBNHJ3X
p4731
aVU0HTRQ5HQ
p4732
asg14
g15
(S'\x07\xe0\n\x03\x10;\x1b\x07C\xcd'
p4733
tp4734
Rp4735
sg19
I5
sg20
I10
sbsS'ceab0ccb'
p4736
(icore
Match
p4737
(dp4738
g6
(lp4739
VU0HTPM4P8
p4740
aVU0J0XLJUD
p4741
asg10
(lp4742
VU0HTVEJKC
p4743
aVU0HTJ2DK6
p4744
asg14
g15
(S'\x07\xe0\x0c\x05\x10.\x19\x0b\xde\x9a'
p4745
tp4746
Rp4747
sg19
I10
sg20
I7
sbsS'02f6efa8'
p4748
(icore
Match
p4749
(dp4750
g6
(lp4751
VU0JBNHJ3X
p4752
aVU0J8ETRH7
p4753
asg10
(lp4754
VU0KCZ16LT
p4755
aVU1CUW4Z7S
p4756
asg14
g15
(S"\x07\xe0\t\x1b\r'\x1e\x06b/"
p4757
tp4758
Rp4759
sg19
I7
sg20
I10
sbsS'a10058b7'
p4760
(icore
Match
p4761
(dp4762
g6
(lp4763
VU0HTVTLBS
p4764
aVU0JBNHJ3X
p4765
asg10
(lp4766
VU0J8ETRH7
p4767
aVU0HTPS3JS
p4768
asg14
g15
(S'\x07\xe0\x07\r\x0c\x1f\x15\rky'
p4769
tp4770
Rp4771
sg19
I10
sg20
I6
sbsS'74803f23'
p4772
(icore
Match
p4773
(dp4774
g6
(lp4775
VU0KA76231
p4776
aVU0J0XLJUD
p4777
asg10
(lp4778
VU0HTVEJKC
p4779
aVU0HTVTLBS
p4780
asg14
g15
(S'\x07\xe0\t\x1d\x0b\x06\t\x07\xc4\xef'
p4781
tp4782
Rp4783
sg19
I10
sg20
I8
sbsS'6889f102'
p4784
(icore
Match
p4785
(dp4786
g6
(lp4787
VU0HTQ6XQQ
p4788
aVU0J0XLJUD
p4789
asg10
(lp4790
VU0HTJ2DK6
p4791
aVU0HTQJMHN
p4792
asg14
g15
(S'\x07\xe0\x0c\x01\x12\x1c\x1e\x04\xd3\xff'
p4793
tp4794
Rp4795
sg19
I10
sg20
I8
sbsS'9b5875c4'
p4796
(icore
Match
p4797
(dp4798
g6
(lp4799
VU0KA76231
p4800
aVU0JBNHJ3X
p4801
asg10
(lp4802
VU0HTVEJKC
p4803
aVU0HTVTLBS
p4804
asg14
g15
(S'\x07\xe0\t\x15\r\x15,\tT\x1e'
p4805
tp4806
Rp4807
sg19
I5
sg20
I10
sbsS'0c83400d'
p4808
(icore
Match
p4809
(dp4810
g6
(lp4811
VU0HTR4KRT
p4812
aVU0HTJ2DK6
p4813
asg10
(lp4814
VU0HTPM4P8
p4815
aVU0HTQ6XQQ
p4816
asg14
g15
(S'\x07\xe0\x0b\x17\x12\x13+\x08\x8fR'
p4817
tp4818
Rp4819
sg19
I10
sg20
I2
sbsS'c1422886'
p4820
(icore
Match
p4821
(dp4822
g6
(lp4823
VU0HTVTLBS
p4824
aVU0HTRQ5HQ
p4825
asg10
(lp4826
VU0HTPM4P8
p4827
aVU0HTR4KRT
p4828
asg14
g15
(S'\x07\xe0\x0b\x18\x0f,\x04\x03\x82\xdb'
p4829
tp4830
Rp4831
sg19
I6
sg20
I10
sbsS'43be5ca3'
p4832
(icore
Match
p4833
(dp4834
g6
(lp4835
VU0KCZ16LT
p4836
aVU0HTJ2DK6
p4837
asg10
(lp4838
VU0HTSHTR9
p4839
aVU0HTVTLBS
p4840
asg14
g15
(S'\x07\xe0\n\x0c\n\x1b\x1c\x00\xa4\x82'
p4841
tp4842
Rp4843
sg19
I10
sg20
I2
sbsS'6e55186d'
p4844
(icore
Match
p4845
(dp4846
g6
(lp4847
VU0KA76231
p4848
aVU0JBNHJ3X
p4849
asg10
(lp4850
VU0J0XLJUD
p4851
aVU0J13UGAF
p4852
asg14
g15
(S'\x07\xe0\t\x15\r\x16!\x05\xdd\x01'
p4853
tp4854
Rp4855
sg19
I8
sg20
I10
sbsS'b6ed35db'
p4856
(icore
Match
p4857
(dp4858
g6
(lp4859
VU0HTSHTR9
p4860
aVU0JBNHJ3X
p4861
asg10
(lp4862
VU0J8ETRH7
p4863
aVU0HTVTLBS
p4864
asg14
g15
(S'\x07\xe0\n\x0b\x10)\x13\x03|\xa4'
p4865
tp4866
Rp4867
sg19
I7
sg20
I10
sbsS'5761ca29'
p4868
(icore
Match
p4869
(dp4870
g6
(lp4871
VU0HTVTLBS
p4872
aVU0HTPM4P8
p4873
asg10
(lp4874
VU0HTSHTR9
p4875
aVU0HTR4KRT
p4876
asg14
g15
(S'\x07\xe0\n\x1a\x0c\x11:\t\x10v'
p4877
tp4878
Rp4879
sg19
I10
sg20
I7
sbsS'0519a6d5'
p4880
(icore
Match
p4881
(dp4882
g6
(lp4883
VU0JBNHJ3X
p4884
aVU0UEK3GMR
p4885
asg10
(lp4886
VU1CUW4Z7S
p4887
aVU16DF5LQH
p4888
asg14
g15
(S'\x07\xe0\x07\x0f\x11\x18:\x02;\xba'
p4889
tp4890
Rp4891
sg19
I10
sg20
I8
sbsS'c78400d1'
p4892
(icore
Match
p4893
(dp4894
g6
(lp4895
VU0KA76231
p4896
aVU0HTPM4P8
p4897
asg10
(lp4898
VU0J13UGAF
p4899
aVU0J8ETRH7
p4900
asg14
g15
(S'\x07\xe0\x08\n\x0f\x1e.\x03\x14<'
p4901
tp4902
Rp4903
sg19
I10
sg20
I7
sbsS'6410f667'
p4904
(icore
Match
p4905
(dp4906
g6
(lp4907
VU0JBNHJ3X
p4908
aVU0HTPUK8R
p4909
asg10
(lp4910
VU0KCZ16LT
p4911
aVU0HTVEJKC
p4912
asg14
g15
(S'\x07\xe0\t\x0e\x0b\n\x11\x08\xefi'
p4913
tp4914
Rp4915
sg19
I10
sg20
I5
sbsS'd157c729'
p4916
(icore
Match
p4917
(dp4918
g6
(lp4919
VU0HTPS3JS
p4920
aVU0HTR4KRT
p4921
asg10
(lp4922
VU0HTPM4P8
p4923
aVU0HTVTLBS
p4924
asg14
g15
(S'\x07\xe0\x0c\x08\x0c2\x1d\x04\xbft'
p4925
tp4926
Rp4927
sg19
I10
sg20
I5
sbsS'9374aa8a'
p4928
(icore
Match
p4929
(dp4930
g6
(lp4931
VU0HTVEJKC
p4932
aVU0834SYHL
p4933
asg10
(lp4934
VU0HTSHTR9
p4935
aVU0J0XLJUD
p4936
asg14
g15
(S'\x07\xe0\x08\x04\x11$\x0f\x0brY'
p4937
tp4938
Rp4939
sg19
I10
sg20
I8
sbsS'be6d2471'
p4940
(icore
Match
p4941
(dp4942
g6
(lp4943
VU0J13UGAF
p4944
aVU0J8ETRH7
p4945
asg10
(lp4946
VU1CUW4Z7S
p4947
aVU0KCZ16LT
p4948
asg14
g15
(S'\x07\xe0\x0b\t\x10\x0e\x12\x0c;\x08'
p4949
tp4950
Rp4951
sg19
I10
sg20
I7
sbsS'cbbde9e1'
p4952
(icore
Match
p4953
(dp4954
g6
(lp4955
VU0HTPS3JS
p4956
aVU0HTVEJKC
p4957
asg10
(lp4958
VU0HTSHTR9
p4959
aVU0HTPM4P8
p4960
asg14
g15
(S'\x07\xe0\x0b\x11\x0c,!\x08Tl'
p4961
tp4962
Rp4963
sg19
I8
sg20
I10
sbsS'f2139c65'
p4964
(icore
Match
p4965
(dp4966
g6
(lp4967
VU0HTVEJKC
p4968
aVU0HTVTLBS
p4969
asg10
(lp4970
VU0HTPM4P8
p4971
aVU0HTR4KRT
p4972
asg14
g15
(S'\x07\xe0\x0c\x14\x11\n\x14\x01\xaf\x04'
p4973
tp4974
Rp4975
sg19
I4
sg20
I10
sbsS'51299beb'
p4976
(icore
Match
p4977
(dp4978
g6
(lp4979
VU0HTVEJKC
p4980
aVU0HTPM4P8
p4981
asg10
(lp4982
VU0J0XLJUD
p4983
aVU0JBNHJ3X
p4984
asg14
g15
(S'\x07\xe0\x08\x03\x0b\x1f5\x0c/m'
p4985
tp4986
Rp4987
sg19
I10
sg20
I9
sbsS'880a7a64'
p4988
(icore
Match
p4989
(dp4990
g6
(lp4991
VU0J13UGAF
p4992
aVU0J8ETRH7
p4993
asg10
(lp4994
VU0HTPM4P8
p4995
aVU1CUW4Z7S
p4996
asg14
g15
(S'\x07\xe0\x0b\x0b\x10\x0c\x1d\x05B0'
p4997
tp4998
Rp4999
sg19
I10
sg20
I7
sbsS'32506fd4'
p5000
(icore
Match
p5001
(dp5002
g6
(lp5003
VU0J0XLJUD
p5004
aVU1CUW4Z7S
p5005
asg10
(lp5006
VU0J13UGAF
p5007
aVU0J8ETRH7
p5008
asg14
g15
(S'\x07\xe0\t\x05\x0c);\x00\x93\x86'
p5009
tp5010
Rp5011
sg19
I10
sg20
I4
sbsS'2a9d3dcf'
p5012
(icore
Match
p5013
(dp5014
g6
(lp5015
VU0J8ETRH7
p5016
aVU0KCZ16LT
p5017
asg10
(lp5018
VU1CUW4Z7S
p5019
aVU0JBNHJ3X
p5020
asg14
g15
(S'\x07\xe0\x0b\n\x116\n\x02\x89I'
p5021
tp5022
Rp5023
sg19
I9
sg20
I10
sbsS'ed23fd4d'
p5024
(icore
Match
p5025
(dp5026
g6
(lp5027
VU0J8ETRH7
p5028
aVU0HTPUK8R
p5029
asg10
(lp5030
VU0JNVCVRT
p5031
aVU0KCZ16LT
p5032
asg14
g15
(S'\x07\xe0\x0b\x19\x0f\x0c\x06\x02)+'
p5033
tp5034
Rp5035
sg19
I10
sg20
I8
sbsS'5ce617ec'
p5036
(icore
Match
p5037
(dp5038
g6
(lp5039
VU0HTSHTR9
p5040
aVU0HTVTLBS
p5041
asg10
(lp5042
VU0KCZ16LT
p5043
aVU1CUW4Z7S
p5044
asg14
g15
(S'\x07\xe0\t\x1b\x0e36\x03\x83;'
p5045
tp5046
Rp5047
sg19
I10
sg20
I6
sbsS'067717cc'
p5048
(icore
Match
p5049
(dp5050
g6
(lp5051
VU0HTPM4P8
p5052
aVU0HTQ6XQQ
p5053
asg10
(lp5054
VU0HTQJMHN
p5055
aVU0HTVTLBS
p5056
asg14
g15
(S'\x07\xe0\x08\x1f\x11\x0b\x15\x05\x12\x05'
p5057
tp5058
Rp5059
sg19
I10
sg20
I7
sbsS'3a4656ee'
p5060
(icore
Match
p5061
(dp5062
g6
(lp5063
VU0HTQ6XQQ
p5064
aVU0J0XLJUD
p5065
asg10
(lp5066
VU0HTQJMHN
p5067
aVU0HTVTLBS
p5068
asg14
g15
(S'\x07\xe0\t\x05\x11,\x01\x0bv\xc0'
p5069
tp5070
Rp5071
sg19
I8
sg20
I10
sbsS'ef52d61e'
p5072
(icore
Match
p5073
(dp5074
g6
(lp5075
VU0HTR4KRT
p5076
aVU0KCZ16LT
p5077
asg10
(lp5078
VU0HTPM4P8
p5079
aVU0KA76231
p5080
asg14
g15
(S"\x07\xe0\x0b\x1c\x10\x1c'\x03Y\xb7"
p5081
tp5082
Rp5083
sg19
I10
sg20
I8
sbsS'c207011b'
p5084
(icore
Match
p5085
(dp5086
g6
(lp5087
VU0KCZ16LT
p5088
aVU0HTRQ5HQ
p5089
asg10
(lp5090
VU1CUW4Z7S
p5091
aVU0HTR4KRT
p5092
asg14
g15
(S'\x07\xe0\x0b\x12\x0b.\x03\x04\xc5a'
p5093
tp5094
Rp5095
sg19
I9
sg20
I10
sbsS'ac77131a'
p5096
(icore
Match
p5097
(dp5098
g6
(lp5099
VU0J8ETRH7
p5100
aVU1CUW4Z7S
p5101
asg10
(lp5102
VU0J13UGAF
p5103
aVU0JBNHJ3X
p5104
asg14
g15
(S'\x07\xe0\x07\x0c\x11\x03\x18\x00.\xf2'
p5105
tp5106
Rp5107
sg19
I10
sg20
I9
sbsS'6cd90ac2'
p5108
(icore
Match
p5109
(dp5110
g6
(lp5111
VU0J8ETRH7
p5112
aVU1CUW4Z7S
p5113
asg10
(lp5114
VU0KCZ16LT
p5115
aVU0JBNHJ3X
p5116
asg14
g15
(S'\x07\xe0\x0c\x15\x0f!\x0e\x00\x992'
p5117
tp5118
Rp5119
sg19
I10
sg20
I7
sbsS'f1888da0'
p5120
(icore
Match
p5121
(dp5122
g6
(lp5123
VU0HTPS3JS
p5124
aVU0HTJ2DK6
p5125
asg10
(lp5126
VU0J8ETRH7
p5127
aVU0HTVTLBS
p5128
asg14
g15
(S'\x07\xe0\x0c\x01\x11 4\x07\xe2t'
p5129
tp5130
Rp5131
sg19
I9
sg20
I10
sbsS'cbe6da2b'
p5132
(icore
Match
p5133
(dp5134
g6
(lp5135
VU0KA76231
p5136
aVU0J8ETRH7
p5137
asg10
(lp5138
VU0HTPUK8R
p5139
aVU0JBNHJ3X
p5140
asg14
g15
(S'\x07\xe0\x0c\x02\r9 \x04\x7f\xb8'
p5141
tp5142
Rp5143
sg19
I10
sg20
I9
sbsS'3c449368'
p5144
(icore
Match
p5145
(dp5146
g6
(lp5147
VU1CUW4Z7S
p5148
aVU0HTPM4P8
p5149
asg10
(lp5150
VU0J13UGAF
p5151
aVU0J8ETRH7
p5152
asg14
g15
(S'\x07\xe0\x0b\x18\x11*9\x06\xf0b'
p5153
tp5154
Rp5155
sg19
I10
sg20
I1
sbsS'8fd45313'
p5156
(icore
Match
p5157
(dp5158
g6
(lp5159
VU1CUW4Z7S
p5160
aVU0HTVEJKC
p5161
asg10
(lp5162
VU0JBNHJ3X
p5163
aVU0J8ETRH7
p5164
asg14
g15
(S'\x07\xe0\n\x05\x0b\x11%\n\x18:'
p5165
tp5166
Rp5167
sg19
I8
sg20
I10
sbsS'aa6d3e32'
p5168
(icore
Match
p5169
(dp5170
g6
(lp5171
VU0KA76231
p5172
aVU1CUW4Z7S
p5173
asg10
(lp5174
VU0HTQ6XQQ
p5175
aVU0J8ETRH7
p5176
asg14
g15
(S'\x07\xe0\t\x10\x0f0\x12\x07\x01K'
p5177
tp5178
Rp5179
sg19
I10
sg20
I7
sbsS'd5918f56'
p5180
(icore
Match
p5181
(dp5182
g6
(lp5183
VU0JBNHJ3X
p5184
aVU17V6C5K6
p5185
asg10
(lp5186
VU0W5T83EK
p5187
aVU0J13UGAF
p5188
asg14
g15
(S'\x07\xe0\x08\x04\x105\x05\n\xdd:'
p5189
tp5190
Rp5191
sg19
I7
sg20
I10
sbsS'1d591b95'
p5192
(icore
Match
p5193
(dp5194
g6
(lp5195
VU0HTVEJKC
p5196
aVU0HTQ6XQQ
p5197
asg10
(lp5198
VU0HTSHTR9
p5199
aVU0HTPM4P8
p5200
asg14
g15
(S'\x07\xe0\x0b\x12\x0c\x02+\x02\xccX'
p5201
tp5202
Rp5203
sg19
I3
sg20
I10
sbsS'515c8c94'
p5204
(icore
Match
p5205
(dp5206
g6
(lp5207
VU0J8ETRH7
p5208
aVU0J0XLJUD
p5209
asg10
(lp5210
VU0KCZ16LT
p5211
aVU0JBNHJ3X
p5212
asg14
g15
(S'\x07\xe0\x0c\x15\x0f!-\x0b\x8b5'
p5213
tp5214
Rp5215
sg19
I9
sg20
I10
sbsS'add9a0f4'
p5216
(icore
Match
p5217
(dp5218
g6
(lp5219
VU0HTPS3JS
p5220
aVU0J0XLJUD
p5221
asg10
(lp5222
VU0HTPM4P8
p5223
aVU0JBNHJ3X
p5224
asg14
g15
(S'\x07\xe0\x08\x17\x10\x14$\r\xdd\r'
p5225
tp5226
Rp5227
sg19
I6
sg20
I10
sbsS'715a4e21'
p5228
(icore
Match
p5229
(dp5230
g6
(lp5231
VU1CUW4Z7S
p5232
aVU0KA76231
p5233
asg10
(lp5234
VU0J13UGAF
p5235
aVU0JBNHJ3X
p5236
asg14
g15
(S'\x07\xe0\n\x03\x0c\x18\x1e\x05\x89\x07'
p5237
tp5238
Rp5239
sg19
I5
sg20
I10
sbsS'd430179e'
p5240
(icore
Match
p5241
(dp5242
g6
(lp5243
VU0HTR4KRT
p5244
aVU0HTQJMHN
p5245
asg10
(lp5246
VU0HTVEJKC
p5247
aVU0HTVTLBS
p5248
asg14
g15
(S'\x07\xe0\n\x13\x0e .\x0bB\xc3'
p5249
tp5250
Rp5251
sg19
I6
sg20
I10
sbsS'177641c3'
p5252
(icore
Match
p5253
(dp5254
g6
(lp5255
VU0HTSHTR9
p5256
aVU0HTQ6XQQ
p5257
asg10
(lp5258
VU0HTVTLBS
p5259
aVU1CUW4Z7S
p5260
asg14
g15
(S'\x07\xe0\t\x1c\n\x193\x0c\xa7.'
p5261
tp5262
Rp5263
sg19
I10
sg20
I8
sbsS'8a539a67'
p5264
(icore
Match
p5265
(dp5266
g6
(lp5267
VU0JBNHJ3X
p5268
aVU0HTSHTR9
p5269
asg10
(lp5270
VU0HTVTLBS
p5271
aVU0KA76231
p5272
asg14
g15
(S'\x07\xe0\n\n\x0c1\x11\x07\xf1\x0c'
p5273
tp5274
Rp5275
sg19
I10
sg20
I9
sbsS'039461cc'
p5276
(icore
Match
p5277
(dp5278
g6
(lp5279
VU0HTVTLBS
p5280
aVU0HTQ6XQQ
p5281
asg10
(lp5282
VU0UEK3GMR
p5283
aVU0JBNHJ3X
p5284
asg14
g15
(S'\x07\xe0\x07\x0f\x11\x1c;\x06!\xd0'
p5285
tp5286
Rp5287
sg19
I6
sg20
I10
sbsS'772803dc'
p5288
(icore
Match
p5289
(dp5290
g6
(lp5291
VU0J0XLJUD
p5292
aVU0JBNHJ3X
p5293
asg10
(lp5294
VU0KCZ16LT
p5295
aVU0HTVEJKC
p5296
asg14
g15
(S'\x07\xe0\t\x1c\x0f\x08:\x03\xa5\xed'
p5297
tp5298
Rp5299
sg19
I10
sg20
I5
sbsS'52a6c134'
p5300
(icore
Match
p5301
(dp5302
g6
(lp5303
VU0KA76231
p5304
aVU1CUW4Z7S
p5305
asg10
(lp5306
VU0J8ETRH7
p5307
aVU0JBNHJ3X
p5308
asg14
g15
(S'\x07\xe0\n\x03\x0e\x12\x11\x00\x8fx'
p5309
tp5310
Rp5311
sg19
I7
sg20
I10
sbsS'7844d396'
p5312
(icore
Match
p5313
(dp5314
g6
(lp5315
VU17V6C5K6
p5316
aVU0JBNHJ3X
p5317
asg10
(lp5318
VU0HTPM4P8
p5319
aVU0J8ETRH7
p5320
asg14
g15
(S'\x07\xe0\n\x07\x11\x16(\x03[\xcf'
p5321
tp5322
Rp5323
sg19
I10
sg20
I4
sbsS'9fff448a'
p5324
(icore
Match
p5325
(dp5326
g6
(lp5327
VU0J0XLJUD
p5328
aVU0HTJ2DK6
p5329
asg10
(lp5330
VU0HTPS3JS
p5331
aVU0HTVEJKC
p5332
asg14
g15
(S'\x07\xe0\t\x07\x0b\x08\x0b\x03\xa1z'
p5333
tp5334
Rp5335
sg19
I10
sg20
I6
sbsS'f9ffadc0'
p5336
(icore
Match
p5337
(dp5338
g6
(lp5339
VU0J0XLJUD
p5340
aVU0HTPM4P8
p5341
asg10
(lp5342
VU0HTSHTR9
p5343
aVU0HTVTLBS
p5344
asg14
g15
(S'\x07\xe0\x0c\x0c\x11\x0e\r\x05P\x0c'
p5345
tp5346
Rp5347
sg19
I4
sg20
I10
sbsS'2aaeb350'
p5348
(icore
Match
p5349
(dp5350
g6
(lp5351
VU17V6C5K6
p5352
aVU0JBNHJ3X
p5353
asg10
(lp5354
VU0HTVTLBS
p5355
aVU0HTPM4P8
p5356
asg14
g15
(S'\x07\xe0\x07\x0f\x10\x08\x1c\x02\xd9\xb2'
p5357
tp5358
Rp5359
sg19
I10
sg20
I8
sbsS'd3443f48'
p5360
(icore
Match
p5361
(dp5362
g6
(lp5363
VU0J8ETRH7
p5364
aVU0JNVCVRT
p5365
asg10
(lp5366
VU0HTRQ5HQ
p5367
aVU1CUW4Z7S
p5368
asg14
g15
(S'\x07\xe0\x0b\x12\x0e&\x0e\x01/\x85'
p5369
tp5370
Rp5371
sg19
I6
sg20
I10
sbsS'739d39cf'
p5372
(icore
Match
p5373
(dp5374
g6
(lp5375
VU0JBNHJ3X
p5376
aVU0HTQ6XQQ
p5377
asg10
(lp5378
VU0HTQJMHN
p5379
aVU0HTVTLBS
p5380
asg14
g15
(S'\x07\xe0\x07\x0f\x11*.\x04\xd4x'
p5381
tp5382
Rp5383
sg19
I4
sg20
I10
sbsS'b4927655'
p5384
(icore
Match
p5385
(dp5386
g6
(lp5387
VU0J8ETRH7
p5388
aVU0JBNHJ3X
p5389
asg10
(lp5390
VU0KCZ16LT
p5391
aVU0KA76231
p5392
asg14
g15
(S'\x07\xe0\x0c\x01\x0b% \x01\xe9A'
p5393
tp5394
Rp5395
sg19
I6
sg20
I10
sbsS'cf5c73e6'
p5396
(icore
Match
p5397
(dp5398
g6
(lp5399
VU0KA76231
p5400
aVU1CUW4Z7S
p5401
asg10
(lp5402
VU0J8ETRH7
p5403
aVU0J13UGAF
p5404
asg14
g15
(S'\x07\xe0\x08\x08\r\n\t\t}\x18'
p5405
tp5406
Rp5407
sg19
I10
sg20
I7
sbsS'ab1e089f'
p5408
(icore
Match
p5409
(dp5410
g6
(lp5411
VU0J8ETRH7
p5412
aVU0J0XLJUD
p5413
asg10
(lp5414
VU0KA76231
p5415
aVU1CUW4Z7S
p5416
asg14
g15
(S'\x07\xe0\x0b\x03\x10\n\x1c\x06\x89\x92'
p5417
tp5418
Rp5419
sg19
I5
sg20
I10
sbsS'3671da46'
p5420
(icore
Match
p5421
(dp5422
g6
(lp5423
VU0W5T83EK
p5424
aVU17V6C5K6
p5425
asg10
(lp5426
VU0J8LB74P
p5427
aVU0J8ETRH7
p5428
asg14
g15
(S'\x07\xe0\x08\x0b\x0b7\x1c\x00\x98>'
p5429
tp5430
Rp5431
sg19
I10
sg20
I4
sbsS'b7b96a41'
p5432
(icore
Match
p5433
(dp5434
g6
(lp5435
VU0HTPS3JS
p5436
aVU0KCZ16LT
p5437
asg10
(lp5438
VU1CUW4Z7S
p5439
aVU0HTRQ5HQ
p5440
asg14
g15
(S'\x07\xe0\x0c\x02\x0f\r9\r\xc5a'
p5441
tp5442
Rp5443
sg19
I10
sg20
I6
sbsS'2a32d1ca'
p5444
(icore
Match
p5445
(dp5446
g6
(lp5447
VU0KCZ16LT
p5448
aVU0KA76231
p5449
asg10
(lp5450
VU0JBNHJ3X
p5451
aVU0J8ETRH7
p5452
asg14
g15
(S'\x07\xe0\x0b\x16\x11\x08(\r\x1d\xbb'
p5453
tp5454
Rp5455
sg19
I10
sg20
I4
sbsS'a58dbbd0'
p5456
(icore
Match
p5457
(dp5458
g6
(lp5459
VU0KCZ16LT
p5460
aVU0J8ETRH7
p5461
asg10
(lp5462
VU07V0F5AS
p5463
aVU0HTVEJKC
p5464
asg14
g15
(S'\x07\xe0\x07\x0e\r5\x11\x06\xa3K'
p5465
tp5466
Rp5467
sg19
I10
sg20
I5
sbsS'def30a4e'
p5468
(icore
Match
p5469
(dp5470
g6
(lp5471
VU0JBNHJ3X
p5472
aVU0HTPUK8R
p5473
asg10
(lp5474
VU0KCZ16LT
p5475
aVU0KA76231
p5476
asg14
g15
(S'\x07\xe0\x0b\x17\x0c\x03\x11\x05\x8c\xfd'
p5477
tp5478
Rp5479
sg19
I5
sg20
I10
sbsS'c4735a1b'
p5480
(icore
Match
p5481
(dp5482
g6
(lp5483
VU0HTJ2DK6
p5484
aVU0HTVEJKC
p5485
asg10
(lp5486
VU0HTPS3JS
p5487
aVU0HTSHTR9
p5488
asg14
g15
(S'\x07\xe0\n\x1a\x0f,\x17\x05,a'
p5489
tp5490
Rp5491
sg19
I5
sg20
I10
sbsS'82e857c5'
p5492
(icore
Match
p5493
(dp5494
g6
(lp5495
VU0HTVTLBS
p5496
aVU0HTJ2DK6
p5497
asg10
(lp5498
VU0HTPM4P8
p5499
aVU0HTQJMHN
p5500
asg14
g15
(S'\x07\xe0\n\x18\x11\t\r\x04\x10\xfb'
p5501
tp5502
Rp5503
sg19
I10
sg20
I6
sbsS'9724e5cc'
p5504
(icore
Match
p5505
(dp5506
g6
(lp5507
VU0J13UGAF
p5508
aVU0J0XLJUD
p5509
asg10
(lp5510
VU07V0F5AS
p5511
aVU0HTVTLBS
p5512
asg14
g15
(S'\x07\xe0\n\x18\x0e\x16\x04\x04\x15\x0c'
p5513
tp5514
Rp5515
sg19
I3
sg20
I10
sbsS'19bd63f1'
p5516
(icore
Match
p5517
(dp5518
g6
(lp5519
VU0HTR4KRT
p5520
aVU0HTSHTR9
p5521
asg10
(lp5522
VU0KA76231
p5523
aVU0HTVTLBS
p5524
asg14
g15
(S'\x07\xe0\x0b\x07\x0e\t\x1f\x08w\x9c'
p5525
tp5526
Rp5527
sg19
I10
sg20
I5
sbsS'661adec2'
p5528
(icore
Match
p5529
(dp5530
g6
(lp5531
VU1CUW4Z7S
p5532
aVU17V6C5K6
p5533
asg10
(lp5534
VU0KA76231
p5535
aVU0J8ETRH7
p5536
asg14
g15
(S'\x07\xe0\x08\t\x0f\x12"\x05\x07P'
p5537
tp5538
Rp5539
sg19
I10
sg20
I5
sbsS'839a9e80'
p5540
(icore
Match
p5541
(dp5542
g6
(lp5543
VU1CUW4Z7S
p5544
aVU0KCZ16LT
p5545
asg10
(lp5546
VU0JBNHJ3X
p5547
aVU0HTSHTR9
p5548
asg14
g15
(S'\x07\xe0\x0b\x10\x11\x19\x05\x0e\x7f\xd9'
p5549
tp5550
Rp5551
sg19
I3
sg20
I10
sbsS'eb8fd95a'
p5552
(icore
Match
p5553
(dp5554
g6
(lp5555
VU0HTJ2DK6
p5556
aVU0J0XLJUD
p5557
asg10
(lp5558
VU0HTQJMHN
p5559
aVU0HTVTLBS
p5560
asg14
g15
(S'\x07\xe0\x0c\x06\x115\x1d\x0c$R'
p5561
tp5562
Rp5563
sg19
I10
sg20
I4
sbsS'27e191c5'
p5564
(icore
Match
p5565
(dp5566
g6
(lp5567
VU1CUW4Z7S
p5568
aVU0KA76231
p5569
asg10
(lp5570
VU0J13UGAF
p5571
aVU0J8ETRH7
p5572
asg14
g15
(S'\x07\xe0\n\x11\x0c%9\x02\x0em'
p5573
tp5574
Rp5575
sg19
I10
sg20
I5
sbsS'293f950d'
p5576
(icore
Match
p5577
(dp5578
g6
(lp5579
VU1CUW4Z7S
p5580
aVU07V0F5AS
p5581
asg10
(lp5582
VU0J13UGAF
p5583
aVU0KA76231
p5584
asg14
g15
(S'\x07\xe0\x08\t\x0f\x15\x04\x0bj\xa0'
p5585
tp5586
Rp5587
sg19
I10
sg20
I4
sbsS'dcc587fb'
p5588
(icore
Match
p5589
(dp5590
g6
(lp5591
VU0KA76231
p5592
aVU0HTPM4P8
p5593
asg10
(lp5594
VU0HTVTLBS
p5595
aVU0HTQJMHN
p5596
asg14
g15
(S'\x07\xe0\x0c\t\x1280\x02\xcf\x1f'
p5597
tp5598
Rp5599
sg19
I10
sg20
I6
sbsS'c149cdfb'
p5600
(icore
Match
p5601
(dp5602
g6
(lp5603
VU0W5T83EK
p5604
aVU0J8ETRH7
p5605
asg10
(lp5606
VU0HTPM4P8
p5607
aVU0J13UGAF
p5608
asg14
g15
(S'\x07\xe0\x07\x0f\n,\x1f\x03b\xc0'
p5609
tp5610
Rp5611
sg19
I10
sg20
I9
sbsS'f2b7c928'
p5612
(icore
Match
p5613
(dp5614
g6
(lp5615
VU0HTJ2DK6
p5616
aVU0HTVEJKC
p5617
asg10
(lp5618
VU0HTQJMHN
p5619
aVU0HTVTLBS
p5620
asg14
g15
(S'\x07\xe0\t\r\x0b\x19(\n3\xa8'
p5621
tp5622
Rp5623
sg19
I10
sg20
I3
sbsS'4389b102'
p5624
(icore
Match
p5625
(dp5626
g6
(lp5627
VU0HTPS3JS
p5628
aVU0HTSHTR9
p5629
asg10
(lp5630
VU0JBNHJ3X
p5631
aVU0HTRQ5HQ
p5632
asg14
g15
(S'\x07\xe0\x0c\x16\x0e\t\x04\x0132'
p5633
tp5634
Rp5635
sg19
I10
sg20
I2
sbsS'c8f0159b'
p5636
(icore
Match
p5637
(dp5638
g6
(lp5639
VU0KA76231
p5640
aVU0KCZ16LT
p5641
asg10
(lp5642
VU0JBNHJ3X
p5643
aVU0J8ETRH7
p5644
asg14
g15
(S'\x07\xe0\x0b\x12\x11#:\x0e\xf7m'
p5645
tp5646
Rp5647
sg19
I10
sg20
I8
sbsS'26fef02f'
p5648
(icore
Match
p5649
(dp5650
g6
(lp5651
VU0HTVEJKC
p5652
aVU0HTVTLBS
p5653
asg10
(lp5654
VU0HTSHTR9
p5655
aVU0JBNHJ3X
p5656
asg14
g15
(S"\x07\xe0\t\x13\x0c'(\r5m"
p5657
tp5658
Rp5659
sg19
I9
sg20
I10
sbsS'81cf10f1'
p5660
(icore
Match
p5661
(dp5662
g6
(lp5663
VU0HTSHTR9
p5664
aVU0HTVEJKC
p5665
asg10
(lp5666
VU0J8ETRH7
p5667
aVU0J13UGAF
p5668
asg14
g15
(S'\x07\xe0\t\t\x0c+\x17\x00;\x93'
p5669
tp5670
Rp5671
sg19
I10
sg20
I3
sbsS'c3803138'
p5672
(icore
Match
p5673
(dp5674
g6
(lp5675
VU0JNVCVRT
p5676
aVU0HTR4KRT
p5677
asg10
(lp5678
VU0KCZ16LT
p5679
aVU0HTVTLBS
p5680
asg14
g15
(S'\x07\xe0\x0b\x17\x10/\x0b\x01\xbc\xca'
p5681
tp5682
Rp5683
sg19
I5
sg20
I10
sbsS'53ab0dc8'
p5684
(icore
Match
p5685
(dp5686
g6
(lp5687
VU0HTSHTR9
p5688
aVU0HTQJMHN
p5689
asg10
(lp5690
VU0HTVTLBS
p5691
aVU0HTPM4P8
p5692
asg14
g15
(S'\x07\xe0\t\x08\r\x18\x1f\x07\xc3I'
p5693
tp5694
Rp5695
sg19
I5
sg20
I10
sbsS'e7cce5d0'
p5696
(icore
Match
p5697
(dp5698
g6
(lp5699
VU0HTSHTR9
p5700
aVU0J0XLJUD
p5701
asg10
(lp5702
VU0HTPM4P8
p5703
aVU0HTVEJKC
p5704
asg14
g15
(S"\x07\xe0\x0c\x0e\r'\x0e\x08\xa6\xf5"
p5705
tp5706
Rp5707
sg19
I8
sg20
I10
sbsS'2bba4ce8'
p5708
(icore
Match
p5709
(dp5710
g6
(lp5711
VU1CUW4Z7S
p5712
aVU0HTPM4P8
p5713
asg10
(lp5714
VU0JBNHJ3X
p5715
aVU0J8ETRH7
p5716
asg14
g15
(S'\x07\xe0\x0b\x08\x11,\r\x0e\\\x14'
p5717
tp5718
Rp5719
sg19
I10
sg20
I7
sbsS'37a618a5'
p5720
(icore
Match
p5721
(dp5722
g6
(lp5723
VU1CUW4Z7S
p5724
aVU0HTPM4P8
p5725
asg10
(lp5726
VU0HTSHTR9
p5727
aVU0KA76231
p5728
asg14
g15
(S'\x07\xe0\n\x1c\r79\x08|&'
p5729
tp5730
Rp5731
sg19
I10
sg20
I4
sbsS'67c9bbda'
p5732
(icore
Match
p5733
(dp5734
g6
(lp5735
VU1CUW4Z7S
p5736
aVU0KA76231
p5737
asg10
(lp5738
VU0J8ETRH7
p5739
aVU0J13UGAF
p5740
asg14
g15
(S'\x07\xe0\t\x1a\x0b\x18\x03\x06\xc5\x0f'
p5741
tp5742
Rp5743
sg19
I10
sg20
I7
sbsS'293e1f78'
p5744
(icore
Match
p5745
(dp5746
g6
(lp5747
VU0JBNHJ3X
p5748
aVU0J8ETRH7
p5749
asg10
(lp5750
VU0HTQJMHN
p5751
aVU0HTVTLBS
p5752
asg14
g15
(S'\x07\xe0\t\x0f\x0c\x1a\x10\x03q\xfc'
p5753
tp5754
Rp5755
sg19
I5
sg20
I10
sbsS'd2506385'
p5756
(icore
Match
p5757
(dp5758
g6
(lp5759
VU0KA76231
p5760
aVU0HTVTLBS
p5761
asg10
(lp5762
VU0HTSHTR9
p5763
aVU0J8ETRH7
p5764
asg14
g15
(S'\x07\xe0\x0b\x08\x0f -\tT\xa3'
p5765
tp5766
Rp5767
sg19
I4
sg20
I10
sbsS'7f7bd165'
p5768
(icore
Match
p5769
(dp5770
g6
(lp5771
VU0HTVTLBS
p5772
aVU17V6C5K6
p5773
asg10
(lp5774
VU0JBNHJ3X
p5775
aVU0HTSHTR9
p5776
asg14
g15
(S'\x07\xe0\n\x03\x11\x10(\x00\x84\xb6'
p5777
tp5778
Rp5779
sg19
I5
sg20
I10
sbsS'e8ff5137'
p5780
(icore
Match
p5781
(dp5782
g6
(lp5783
VU0J8ETRH7
p5784
aVU0HTPS3JS
p5785
asg10
(lp5786
VU0JBNHJ3X
p5787
aVU0HTR4KRT
p5788
asg14
g15
(S'\x07\xe0\x0c\x15\x11\x1e\x0e\n\xd2\x15'
p5789
tp5790
Rp5791
sg19
I10
sg20
I8
sbsS'ca67d206'
p5792
(icore
Match
p5793
(dp5794
g6
(lp5795
VU0HTR4KRT
p5796
aVU0HTVEJKC
p5797
asg10
(lp5798
VU0HTPM4P8
p5799
aVU0JBNHJ3X
p5800
asg14
g15
(S'\x07\xe0\n\x14\x0c5\x01\x07M\xa0'
p5801
tp5802
Rp5803
sg19
I10
sg20
I3
sbsS'53eb4b20'
p5804
(icore
Match
p5805
(dp5806
g6
(lp5807
VU0KCZ16LT
p5808
aVU0HTQ6XQQ
p5809
asg10
(lp5810
VU0HTQJMHN
p5811
aVU0HTVTLBS
p5812
asg14
g15
(S'\x07\xe0\x0b\x19\x10/\x1b\x02\xd6\xa5'
p5813
tp5814
Rp5815
sg19
I7
sg20
I10
sbsS'5e9d0e06'
p5816
(icore
Match
p5817
(dp5818
g6
(lp5819
VU0HTVTLBS
p5820
aVU1CUW4Z7S
p5821
asg10
(lp5822
VU0KA76231
p5823
aVU0HTJ2DK6
p5824
asg14
g15
(S'\x07\xe0\n\x13\x10\x15$\x0c\xe8\xe3'
p5825
tp5826
Rp5827
sg19
I10
sg20
I7
sbsS'856a0d60'
p5828
(icore
Match
p5829
(dp5830
g6
(lp5831
VU0JBNHJ3X
p5832
aVU0J8ETRH7
p5833
asg10
(lp5834
VU0J13UGAF
p5835
aVU07V0F5AS
p5836
asg14
g15
(S'\x07\xe0\x08\x04\x104\x1b\x0c:S'
p5837
tp5838
Rp5839
sg19
I6
sg20
I10
sbsS'c3cb57d0'
p5840
(icore
Match
p5841
(dp5842
g6
(lp5843
VU0HTVEJKC
p5844
aVU0J0XLJUD
p5845
asg10
(lp5846
VU0HTSHTR9
p5847
aVU0HTPM4P8
p5848
asg14
g15
(S'\x07\xe0\n\x18\x0c5\x1a\x0e\xc4\xb0'
p5849
tp5850
Rp5851
sg19
I10
sg20
I7
sbsS'5c4be9c5'
p5852
(icore
Match
p5853
(dp5854
g6
(lp5855
VU0HTSHTR9
p5856
aVU0HTVEJKC
p5857
asg10
(lp5858
VU0HTPM4P8
p5859
aVU0HTVTLBS
p5860
asg14
g15
(S'\x07\xe0\n\x0c\x0b,*\x05\xc5('
p5861
tp5862
Rp5863
sg19
I10
sg20
I7
sbsS'b7fcb880'
p5864
(icore
Match
p5865
(dp5866
g6
(lp5867
VU0HTSHTR9
p5868
aVU0HTJ2DK6
p5869
asg10
(lp5870
VU0KA76231
p5871
aVU0HTVTLBS
p5872
asg14
g15
(S'\x07\xe0\t\x0e\x0f,\x17\n\x17\xc0'
p5873
tp5874
Rp5875
sg19
I10
sg20
I8
sbsS'ae17e4f6'
p5876
(icore
Match
p5877
(dp5878
g6
(lp5879
VU0HTPM4P8
p5880
aVU0J0XLJUD
p5881
asg10
(lp5882
VU0HTVTLBS
p5883
aVU0KCZ16LT
p5884
asg14
g15
(S'\x07\xe0\x0c\x14\x11($\x0c\xfe\x8b'
p5885
tp5886
Rp5887
sg19
I10
sg20
I8
sbsS'578f9c12'
p5888
(icore
Match
p5889
(dp5890
g6
(lp5891
VU0HTPM4P8
p5892
aVU0HTSHTR9
p5893
asg10
(lp5894
VU0KA76231
p5895
aVU0HTPS3JS
p5896
asg14
g15
(S"\x07\xe0\n\x1b\x0f\x05'\x05\xd6\xb0"
p5897
tp5898
Rp5899
sg19
I10
sg20
I7
sbsS'5107a5ba'
p5900
(icore
Match
p5901
(dp5902
g6
(lp5903
VU0HTVEJKC
p5904
aVU0J0XLJUD
p5905
asg10
(lp5906
VU0HTPM4P8
p5907
aVU0HTVTLBS
p5908
asg14
g15
(S'\x07\xe0\x0c\x01\x0c60\x00k+'
p5909
tp5910
Rp5911
sg19
I9
sg20
I10
sbsS'3bad9052'
p5912
(icore
Match
p5913
(dp5914
g6
(lp5915
VU0JBNHJ3X
p5916
aVU0HTQ6XQQ
p5917
asg10
(lp5918
VU0HTPM4P8
p5919
aVU0J8ETRH7
p5920
asg14
g15
(S'\x07\xe0\x0b\x12\x12\r\x02\nL@'
p5921
tp5922
Rp5923
sg19
I8
sg20
I10
sbsS'21a877f8'
p5924
(icore
Match
p5925
(dp5926
g6
(lp5927
VU0J8ETRH7
p5928
aVU0JBNHJ3X
p5929
asg10
(lp5930
VU0J0XLJUD
p5931
aVU0HTSHTR9
p5932
asg14
g15
(S'\x07\xe0\x0c\x06\x0e5.\x0e\xe2k'
p5933
tp5934
Rp5935
sg19
I5
sg20
I10
sbsS'17e6a282'
p5936
(icore
Match
p5937
(dp5938
g6
(lp5939
VU0KCZ16LT
p5940
aVU0J8ETRH7
p5941
asg10
(lp5942
VU1CUW4Z7S
p5943
aVU0HTQJMHN
p5944
asg14
g15
(S'\x07\xe0\x07\x0c\x11\x04\x08\x0c\x16\xd2'
p5945
tp5946
Rp5947
sg19
I6
sg20
I10
sbsS'3d7424f2'
p5948
(icore
Match
p5949
(dp5950
g6
(lp5951
VU0HTPS3JS
p5952
aVU0J8ETRH7
p5953
asg10
(lp5954
VU0HTPM4P8
p5955
aVU0JBNHJ3X
p5956
asg14
g15
(S'\x07\xe0\x08\x19\x1010\t\xcb\xa7'
p5957
tp5958
Rp5959
sg19
I10
sg20
I7
sbsS'17415208'
p5960
(icore
Match
p5961
(dp5962
g6
(lp5963
VU0KCZ16LT
p5964
aVU0HTRQ5HQ
p5965
asg10
(lp5966
VU1CUW4Z7S
p5967
aVU0HTR4KRT
p5968
asg14
g15
(S'\x07\xe0\x0b\x12\x0b-3\x0c\x9c\xe7'
p5969
tp5970
Rp5971
sg19
I3
sg20
I10
sbsS'd8936203'
p5972
(icore
Match
p5973
(dp5974
g6
(lp5975
VU0J0XLJUD
p5976
aVU0HTQ6XQQ
p5977
asg10
(lp5978
VU1CUW4Z7S
p5979
aVU0HTVTLBS
p5980
asg14
g15
(S'\x07\xe0\x08\x1e\x11\x188\x02\xdbR'
p5981
tp5982
Rp5983
sg19
I9
sg20
I10
sbsS'f28c7c54'
p5984
(icore
Match
p5985
(dp5986
g6
(lp5987
VU0HTPS3JS
p5988
aVU0KCZ16LT
p5989
asg10
(lp5990
VU1CUW4Z7S
p5991
aVU0HTRQ5HQ
p5992
asg14
g15
(S'\x07\xe0\x0c\x02\x0f\x0e\x1f\x08?\r'
p5993
tp5994
Rp5995
sg19
I10
sg20
I4
sbsS'a36b5f69'
p5996
(icore
Match
p5997
(dp5998
g6
(lp5999
VU0KA76231
p6000
aVU1CUW4Z7S
p6001
asg10
(lp6002
VU0HTVTLBS
p6003
aVU0JBNHJ3X
p6004
asg14
g15
(S'\x07\xe0\n\x0c\r0\x1c\x04B\x92'
p6005
tp6006
Rp6007
sg19
I7
sg20
I10
sbsS'749a9393'
p6008
(icore
Match
p6009
(dp6010
g6
(lp6011
VU1CUW4Z7S
p6012
aVU0JBNHJ3X
p6013
asg10
(lp6014
VU0JNVCVRT
p6015
aVU0J8ETRH7
p6016
asg14
g15
(S'\x07\xe0\x08\x18\x0f8\x04\x05\x12\xe6'
p6017
tp6018
Rp6019
sg19
I10
sg20
I7
sbsS'e3ede3fa'
p6020
(icore
Match
p6021
(dp6022
g6
(lp6023
VU0W5T83EK
p6024
aVU0HTPUK8R
p6025
asg10
(lp6026
VU0HTPM4P8
p6027
aVU1CUW4Z7S
p6028
asg14
g15
(S'\x07\xe0\t\x05\x10\x03\x11\r\xf0\x19'
p6029
tp6030
Rp6031
sg19
I9
sg20
I10
sbsS'74c091e3'
p6032
(icore
Match
p6033
(dp6034
g6
(lp6035
VU0HTRQ5HQ
p6036
aVU0JBNHJ3X
p6037
asg10
(lp6038
VU1CUW4Z7S
p6039
aVU0HTPS3JS
p6040
asg14
g15
(S'\x07\xe0\x08\x19\x0b52\x0c4}'
p6041
tp6042
Rp6043
sg19
I8
sg20
I10
sbsS'48077546'
p6044
(icore
Match
p6045
(dp6046
g6
(lp6047
VU0KA76231
p6048
aVU0J8ETRH7
p6049
asg10
(lp6050
VU0HTSHTR9
p6051
aVU0JBNHJ3X
p6052
asg14
g15
(S'\x07\xe0\x0c\x05\x10\n\t\x03v\xf7'
p6053
tp6054
Rp6055
sg19
I3
sg20
I10
sbsS'f4fa229b'
p6056
(icore
Match
p6057
(dp6058
g6
(lp6059
VU1CUW4Z7S
p6060
aVU0HTSHTR9
p6061
asg10
(lp6062
VU0KA76231
p6063
aVU0KCZ16LT
p6064
asg14
g15
(S'\x07\xe0\t\x1d\x0f\t\x1a\x06\x9f\xf6'
p6065
tp6066
Rp6067
sg19
I10
sg20
I7
sbsS'62cdca8d'
p6068
(icore
Match
p6069
(dp6070
g6
(lp6071
VU0HTR4KRT
p6072
aVU0HTPM4P8
p6073
asg10
(lp6074
VU0HTSHTR9
p6075
aVU0J0XLJUD
p6076
asg14
g15
(S'\x07\xe0\x0b\x17\x0f"\x02\x01z\xf9'
p6077
tp6078
Rp6079
sg19
I10
sg20
I3
sbsS'11d42204'
p6080
(icore
Match
p6081
(dp6082
g6
(lp6083
VU1CUW4Z7S
p6084
aVU0HTVEJKC
p6085
asg10
(lp6086
VU0HTPM4P8
p6087
aVU0KA76231
p6088
asg14
g15
(S'\x07\xe0\n\x0c\x0f\t%\n\x03p'
p6089
tp6090
Rp6091
sg19
I9
sg20
I10
sbsS'd04591ff'
p6092
(icore
Match
p6093
(dp6094
g6
(lp6095
VU0KA76231
p6096
aVU0HTPM4P8
p6097
asg10
(lp6098
VU0HTJ2DK6
p6099
aVU0HTVTLBS
p6100
asg14
g15
(S'\x07\xe0\n\x12\x11\x081\x0c\xadZ'
p6101
tp6102
Rp6103
sg19
I10
sg20
I8
sbsS'9b20a49b'
p6104
(icore
Match
p6105
(dp6106
g6
(lp6107
VU0KA76231
p6108
aVU0HTPUK8R
p6109
asg10
(lp6110
VU0JNVCVRT
p6111
aVU0HTQJMHN
p6112
asg14
g15
(S'\x07\xe0\x0b\x18\x0f\x06*\x04\xa1P'
p6113
tp6114
Rp6115
sg19
I10
sg20
I4
sbsS'd97f681f'
p6116
(icore
Match
p6117
(dp6118
g6
(lp6119
VU0J8ETRH7
p6120
aVU0JBNHJ3X
p6121
asg10
(lp6122
VU0J13UGAF
p6123
aVU0HTRQ5HQ
p6124
asg14
g15
(S'\x07\xe0\x07\x16\x0b\x027\x0c\xe2\xb5'
p6125
tp6126
Rp6127
sg19
I8
sg20
I10
sbsS'64b49843'
p6128
(icore
Match
p6129
(dp6130
g6
(lp6131
VU0HTPM4P8
p6132
aVU0J8ETRH7
p6133
asg10
(lp6134
VU0HTVTLBS
p6135
aVU0KA76231
p6136
asg14
g15
(S'\x07\xe0\n\x1c\x10\x05\x16\n_r'
p6137
tp6138
Rp6139
sg19
I10
sg20
I6
sbsS'1b2b2700'
p6140
(icore
Match
p6141
(dp6142
g6
(lp6143
VU17V6C5K6
p6144
aVU1CUW4Z7S
p6145
asg10
(lp6146
VU0JBNHJ3X
p6147
aVU0W5T83EK
p6148
asg14
g15
(S'\x07\xe0\n\x14\x11\x14-\x01z+'
p6149
tp6150
Rp6151
sg19
I10
sg20
I7
sbsS'329bc50f'
p6152
(icore
Match
p6153
(dp6154
g6
(lp6155
VU0HTQ6XQQ
p6156
aVU0HTVEJKC
p6157
asg10
(lp6158
VU0HTVTLBS
p6159
aVU0J0XLJUD
p6160
asg14
g15
(S'\x07\xe0\x07\x1b\x0b\x052\x00:\x1e'
p6161
tp6162
Rp6163
sg19
I10
sg20
I9
sbsS'49f75141'
p6164
(icore
Match
p6165
(dp6166
g6
(lp6167
VU0HTPUK8R
p6168
aVU0KCZ16LT
p6169
asg10
(lp6170
VU0JBNHJ3X
p6171
aVU0J8ETRH7
p6172
asg14
g15
(S'\x07\xe0\x0c\x08\x11.,\x07>\xdf'
p6173
tp6174
Rp6175
sg19
I10
sg20
I5
sbsS'3bc1fca5'
p6176
(icore
Match
p6177
(dp6178
g6
(lp6179
VU0HTVTLBS
p6180
aVU0J8ETRH7
p6181
asg10
(lp6182
VU0HTPM4P8
p6183
aVU0HTSHTR9
p6184
asg14
g15
(S'\x07\xe0\x07\x0f\x0c\x157\x03\xcb\xe4'
p6185
tp6186
Rp6187
sg19
I8
sg20
I10
sbsS'5499b3b6'
p6188
(icore
Match
p6189
(dp6190
g6
(lp6191
VU0KA76231
p6192
aVU0J13UGAF
p6193
asg10
(lp6194
VU0HTVTLBS
p6195
aVU0JBNHJ3X
p6196
asg14
g15
(S'\x07\xe0\x0c\r\x10\x16\x13\x0b\x12k'
p6197
tp6198
Rp6199
sg19
I10
sg20
I8
sbsS'ec98a9fe'
p6200
(icore
Match
p6201
(dp6202
g6
(lp6203
VU0HTPM4P8
p6204
aVU0J8ETRH7
p6205
asg10
(lp6206
VU0HTRQ5HQ
p6207
aVU0HTVTLBS
p6208
asg14
g15
(S'\x07\xe0\x08\x1a\n\x12.\x00D\x07'
p6209
tp6210
Rp6211
sg19
I5
sg20
I10
sbsS'4fee1897'
p6212
(icore
Match
p6213
(dp6214
g6
(lp6215
VU0HTPS3JS
p6216
aVU0HTQJMHN
p6217
asg10
(lp6218
VU0HTPM4P8
p6219
aVU0HTVTLBS
p6220
asg14
g15
(S'\x07\xe0\x0c\x15\x12#\x02\x00\x98B'
p6221
tp6222
Rp6223
sg19
I6
sg20
I10
sbsS'825b4891'
p6224
(icore
Match
p6225
(dp6226
g6
(lp6227
VU0J13UGAF
p6228
aVU0KA76231
p6229
asg10
(lp6230
VU0HTPS3JS
p6231
aVU0HTVTLBS
p6232
asg14
g15
(S'\x07\xe0\x0b\x03\x0e\x15\x16\x00|k'
p6233
tp6234
Rp6235
sg19
I9
sg20
I10
sbsS'8a346018'
p6236
(icore
Match
p6237
(dp6238
g6
(lp6239
VU0HTSHTR9
p6240
aVU0HTR4KRT
p6241
asg10
(lp6242
VU0HTVEJKC
p6243
aVU0HTPS3JS
p6244
asg14
g15
(S'\x07\xe0\x0c\x16\x0b-\t\tv\x10'
p6245
tp6246
Rp6247
sg19
I8
sg20
I10
sbsS'b4162d3c'
p6248
(icore
Match
p6249
(dp6250
g6
(lp6251
VU0HTPS3JS
p6252
aVU0HTVEJKC
p6253
asg10
(lp6254
VU0HTQJMHN
p6255
aVU0HTSHTR9
p6256
asg14
g15
(S'\x07\xe0\x08\n\x0e\x049\x03\xb4d'
p6257
tp6258
Rp6259
sg19
I4
sg20
I10
sbsS'85f7c876'
p6260
(icore
Match
p6261
(dp6262
g6
(lp6263
VU0KCZ16LT
p6264
aVU0HTQ6XQQ
p6265
asg10
(lp6266
VU0HTQJMHN
p6267
aVU0HTVTLBS
p6268
asg14
g15
(S'\x07\xe0\x0b\x19\x10.0\x02\x1c\xcc'
p6269
tp6270
Rp6271
sg19
I10
sg20
I2
sbsS'd69d75e5'
p6272
(icore
Match
p6273
(dp6274
g6
(lp6275
VU0HTPUK8R
p6276
aVU0HTRQ5HQ
p6277
asg10
(lp6278
VU0KA76231
p6279
aVU0JBNHJ3X
p6280
asg14
g15
(S'\x07\xe0\x0b\x12\n9\x1c\nf\x84'
p6281
tp6282
Rp6283
sg19
I10
sg20
I4
sbsS'c4b6a311'
p6284
(icore
Match
p6285
(dp6286
g6
(lp6287
VU0HTJ2DK6
p6288
aVU0JBNHJ3X
p6289
asg10
(lp6290
VU0HTPM4P8
p6291
aVU0HTR4KRT
p6292
asg14
g15
(S'\x07\xe0\x0b\n\x11\x15/\x02\xd7\x89'
p6293
tp6294
Rp6295
sg19
I10
sg20
I9
sbsS'f1c457e2'
p6296
(icore
Match
p6297
(dp6298
g6
(lp6299
VU0J8ETRH7
p6300
aVU0HTVEJKC
p6301
asg10
(lp6302
VU0JBNHJ3X
p6303
aVU0KA76231
p6304
asg14
g15
(S'\x07\xe0\n\x19\x10\x1f1\x045\x86'
p6305
tp6306
Rp6307
sg19
I6
sg20
I10
sbsS'0d324f37'
p6308
(icore
Match
p6309
(dp6310
g6
(lp6311
VU0HTQ6XQQ
p6312
aVU0HTSHTR9
p6313
asg10
(lp6314
VU0HTPS3JS
p6315
aVU0HTVEJKC
p6316
asg14
g15
(S'\x07\xe0\x08\n\x0f+ \x02cO'
p6317
tp6318
Rp6319
sg19
I10
sg20
I3
sbsS'b8a79a74'
p6320
(icore
Match
p6321
(dp6322
g6
(lp6323
VU0HTVTLBS
p6324
aVU0HTVEJKC
p6325
asg10
(lp6326
VU1CUW4Z7S
p6327
aVU0KA76231
p6328
asg14
g15
(S'\x07\xe0\t\x13\x0c8\x1c\n\x12>'
p6329
tp6330
Rp6331
sg19
I6
sg20
I10
sbsS'a62ec592'
p6332
(icore
Match
p6333
(dp6334
g6
(lp6335
VU0HTJ2DK6
p6336
aVU0J0XLJUD
p6337
asg10
(lp6338
VU0HTQ6XQQ
p6339
aVU1CUW4Z7S
p6340
asg14
g15
(S'\x07\xe0\t\x06\x11\n\t\x06\xaa_'
p6341
tp6342
Rp6343
sg19
I8
sg20
I10
sbsS'5be4bc1a'
p6344
(icore
Match
p6345
(dp6346
g6
(lp6347
VU0HTVTLBS
p6348
aVU0HTJ2DK6
p6349
asg10
(lp6350
VU0HTSHTR9
p6351
aVU0HTVEJKC
p6352
asg14
g15
(S'\x07\xe0\n\x06\n3\x04\x0e\xa7z'
p6353
tp6354
Rp6355
sg19
I10
sg20
I2
sbsS'3e86d5b7'
p6356
(icore
Match
p6357
(dp6358
g6
(lp6359
VU0HTVTLBS
p6360
aVU0HTQ6XQQ
p6361
asg10
(lp6362
VU0HTQJMHN
p6363
aVU0HTJ2DK6
p6364
asg14
g15
(S'\x07\xe0\x0b\x16\x12&\x17\x08=\xf2'
p6365
tp6366
Rp6367
sg19
I10
sg20
I4
sbsS'96ee9d35'
p6368
(icore
Match
p6369
(dp6370
g6
(lp6371
VU1CUW4Z7S
p6372
aVU0KA76231
p6373
asg10
(lp6374
VU0W5T83EK
p6375
aVU0J8ETRH7
p6376
asg14
g15
(S'\x07\xe0\n\x1c\x10\x04\x1f\x04\xc8\xc2'
p6377
tp6378
Rp6379
sg19
I5
sg20
I10
sbsS'66f2781a'
p6380
(icore
Match
p6381
(dp6382
g6
(lp6383
VU0JBNHJ3X
p6384
aVU0J0XLJUD
p6385
asg10
(lp6386
VU0J8ETRH7
p6387
aVU0KA76231
p6388
asg14
g15
(S'\x07\xe0\x0c\x05\x12\n\x12\x08x%'
p6389
tp6390
Rp6391
sg19
I10
sg20
I2
sbsS'6f534eb3'
p6392
(icore
Match
p6393
(dp6394
g6
(lp6395
VU0HTPUK8R
p6396
aVU16DF5LQH
p6397
asg10
(lp6398
VU1CUW4Z7S
p6399
aVU0J13UGAF
p6400
asg14
g15
(S'\x07\xe0\t\x01\x0f\x170\x06N\x92'
p6401
tp6402
Rp6403
sg19
I10
sg20
I4
sbsS'4fbac551'
p6404
(icore
Match
p6405
(dp6406
g6
(lp6407
VU0HTSHTR9
p6408
aVU0JBNHJ3X
p6409
asg10
(lp6410
VU0HTQJMHN
p6411
aVU0J0XLJUD
p6412
asg14
g15
(S'\x07\xe0\x08\x0c\x0c\x080\x0c\x1c\x00'
p6413
tp6414
Rp6415
sg19
I10
sg20
I2
sbsS'2422423d'
p6416
(icore
Match
p6417
(dp6418
g6
(lp6419
VU0HTPM4P8
p6420
aVU0W5T83EK
p6421
asg10
(lp6422
VU0HTRQ5HQ
p6423
aVU07V0F5AS
p6424
asg14
g15
(S'\x07\xe0\x08\t\x0c\x1c+\x0b\xd4\xd5'
p6425
tp6426
Rp6427
sg19
I10
sg20
I1
sbsS'2438a270'
p6428
(icore
Match
p6429
(dp6430
g6
(lp6431
VU0J0XLJUD
p6432
aVU0HTVTLBS
p6433
asg10
(lp6434
VU0HTSHTR9
p6435
aVU0HTVEJKC
p6436
asg14
g15
(S'\x07\xe0\x07\x0f\x0e\x12/\x04[\xdf'
p6437
tp6438
Rp6439
sg19
I10
sg20
I9
sbsS'ce7f4b33'
p6440
(icore
Match
p6441
(dp6442
g6
(lp6443
VU0J13UGAF
p6444
aVU0JBNHJ3X
p6445
asg10
(lp6446
VU0HTVTLBS
p6447
aVU0J0XLJUD
p6448
asg14
g15
(S'\x07\xe0\x07\x1a\x0c\x02\x16\x02\x85\x90'
p6449
tp6450
Rp6451
sg19
I9
sg20
I10
sbsS'f49b699b'
p6452
(icore
Match
p6453
(dp6454
g6
(lp6455
VU0HTVTLBS
p6456
aVU0JBNHJ3X
p6457
asg10
(lp6458
VU0HTQJMHN
p6459
aVU0HTR4KRT
p6460
asg14
g15
(S'\x07\xe0\x0c\x07\r\x1a\x17\x06()'
p6461
tp6462
Rp6463
sg19
I8
sg20
I10
sbsS'e9aa5ca4'
p6464
(icore
Match
p6465
(dp6466
g6
(lp6467
VU0HTJ2DK6
p6468
aVU0J0XLJUD
p6469
asg10
(lp6470
VU0HTQ6XQQ
p6471
aVU1CUW4Z7S
p6472
asg14
g15
(S'\x07\xe0\t\x06\x11\n\x05\tf\x95'
p6473
tp6474
Rp6475
sg19
I5
sg20
I10
sbsS'cfbab404'
p6476
(icore
Match
p6477
(dp6478
g6
(lp6479
VU0KA76231
p6480
aVU0J8ETRH7
p6481
asg10
(lp6482
VU0HTPUK8R
p6483
aVU0JBNHJ3X
p6484
asg14
g15
(S'\x07\xe0\x0c\x02\r9(\x06\x13W'
p6485
tp6486
Rp6487
sg19
I7
sg20
I10
sbsS'aa4a4470'
p6488
(icore
Match
p6489
(dp6490
g6
(lp6491
VU1CUW4Z7S
p6492
aVU0HTRQ5HQ
p6493
asg10
(lp6494
VU0JBNHJ3X
p6495
aVU0J8ETRH7
p6496
asg14
g15
(S'\x07\xe0\x08\x1a\x0f\x07\t\x02\xe7\xd3'
p6497
tp6498
Rp6499
sg19
I7
sg20
I10
sbsS'c9e3c124'
p6500
(icore
Match
p6501
(dp6502
g6
(lp6503
VU0HTPM4P8
p6504
aVU0J0XLJUD
p6505
asg10
(lp6506
VU0HTVTLBS
p6507
aVU0KCZ16LT
p6508
asg14
g15
(S'\x07\xe0\x0c\x14\x11(\x1a\x01\xf5\x1a'
p6509
tp6510
Rp6511
sg19
I5
sg20
I10
sbsS'2742e2db'
p6512
(icore
Match
p6513
(dp6514
g6
(lp6515
VU0HTVTLBS
p6516
aVU0HTQ6XQQ
p6517
asg10
(lp6518
VU0HTQJMHN
p6519
aVU0HTR4KRT
p6520
asg14
g15
(S'\x07\xe0\n\x1a\x10\x1f/\x04\x82\xed'
p6521
tp6522
Rp6523
sg19
I10
sg20
I9
sbsS'1967d428'
p6524
(icore
Match
p6525
(dp6526
g6
(lp6527
VU0HTVTLBS
p6528
aVU0JBNHJ3X
p6529
asg10
(lp6530
VU0KA76231
p6531
aVU17V6C5K6
p6532
asg14
g15
(S'\x07\xe0\x07\x12\x0b$\x15\x03u\x99'
p6533
tp6534
Rp6535
sg19
I8
sg20
I10
sbsS'fc5a8331'
p6536
(icore
Match
p6537
(dp6538
g6
(lp6539
VU0KA76231
p6540
aVU0HTJ2DK6
p6541
asg10
(lp6542
VU0HTPM4P8
p6543
aVU0KCZ16LT
p6544
asg14
g15
(S'\x07\xe0\x0b\x08\x0f2\x11\x00\x0e\x01'
p6545
tp6546
Rp6547
sg19
I9
sg20
I10
sbsS'4fbc126d'
p6548
(icore
Match
p6549
(dp6550
g6
(lp6551
VU0KA76231
p6552
aVU0KCZ16LT
p6553
asg10
(lp6554
VU0HTRQ5HQ
p6555
aVU0JBNHJ3X
p6556
asg14
g15
(S'\x07\xe0\x0c\x0f\x106\x13\x07\x8c\x94'
p6557
tp6558
Rp6559
sg19
I10
sg20
I7
sbsS'1d34368b'
p6560
(icore
Match
p6561
(dp6562
g6
(lp6563
VU0J0XLJUD
p6564
aVU0JBNHJ3X
p6565
asg10
(lp6566
VU0HTPM4P8
p6567
aVU0HTQJMHN
p6568
asg14
g15
(S'\x07\xe0\x0c\x0e\x12\x01;\t\x9bI'
p6569
tp6570
Rp6571
sg19
I10
sg20
I8
sbsS'6cd2ccab'
p6572
(icore
Match
p6573
(dp6574
g6
(lp6575
VU0JBNHJ3X
p6576
aVU0KCZ16LT
p6577
asg10
(lp6578
VU0HTPM4P8
p6579
aVU0KA76231
p6580
asg14
g15
(S'\x07\xe0\x0b\x03\x11\x119\x0bE='
p6581
tp6582
Rp6583
sg19
I10
sg20
I4
sbsS'5e1da7fc'
p6584
(icore
Match
p6585
(dp6586
g6
(lp6587
VU0KA76231
p6588
aVU0HTPS3JS
p6589
asg10
(lp6590
VU0HTPM4P8
p6591
aVU0J8ETRH7
p6592
asg14
g15
(S'\x07\xe0\x0c\x08\x10:3\x03\xf9"'
p6593
tp6594
Rp6595
sg19
I10
sg20
I5
sbsS'd78d669a'
p6596
(icore
Match
p6597
(dp6598
g6
(lp6599
VU0J0XLJUD
p6600
aVU0HTVTLBS
p6601
asg10
(lp6602
VU0HTSHTR9
p6603
aVU0KCZ16LT
p6604
asg14
g15
(S'\x07\xe0\t\x0f\x0b\x00.\t\x1ap'
p6605
tp6606
Rp6607
sg19
I10
sg20
I7
sbsS'a0e38cf6'
p6608
(icore
Match
p6609
(dp6610
g6
(lp6611
VU0HTVEJKC
p6612
aVU0HTQ6XQQ
p6613
asg10
(lp6614
VU0HTSHTR9
p6615
aVU0JBNHJ3X
p6616
asg14
g15
(S'\x07\xe0\x07\x13\x12\x08\x1d\x0c\x90\x8d'
p6617
tp6618
Rp6619
sg19
I6
sg20
I10
sbsS'c397d51b'
p6620
(icore
Match
p6621
(dp6622
g6
(lp6623
VU0JBNHJ3X
p6624
aVU0KCZ16LT
p6625
asg10
(lp6626
VU0KA76231
p6627
aVU1CUW4Z7S
p6628
asg14
g15
(S'\x07\xe0\x0b\x1d\x0b4\x02\x0b\x02\x95'
p6629
tp6630
Rp6631
sg19
I8
sg20
I10
sbsS'1f71a0f8'
p6632
(icore
Match
p6633
(dp6634
g6
(lp6635
VU0HTPS3JS
p6636
aVU0HTSHTR9
p6637
asg10
(lp6638
VU0KCZ16LT
p6639
aVU0HTVTLBS
p6640
asg14
g15
(S'\x07\xe0\x0c\x17\n\x0c\x1d\n\n\xc5'
p6641
tp6642
Rp6643
sg19
I10
sg20
I5
sbsS'c243c2a6'
p6644
(icore
Match
p6645
(dp6646
g6
(lp6647
VU0JBNHJ3X
p6648
aVU1CUW4Z7S
p6649
asg10
(lp6650
VU0HTVTLBS
p6651
aVU07V0F5AS
p6652
asg14
g15
(S'\x07\xe0\x07\x1b\r3*\x00\xd71'
p6653
tp6654
Rp6655
sg19
I7
sg20
I10
sbsS'87475853'
p6656
(icore
Match
p6657
(dp6658
g6
(lp6659
VU0J8ETRH7
p6660
aVU0KA76231
p6661
asg10
(lp6662
VU0JBNHJ3X
p6663
aVU0KCZ16LT
p6664
asg14
g15
(S'\x07\xe0\n\x0b\x0c3\x0b\x04\xedn'
p6665
tp6666
Rp6667
sg19
I6
sg20
I10
sbsS'0c8b9c56'
p6668
(icore
Match
p6669
(dp6670
g6
(lp6671
VU0J13UGAF
p6672
aVU0HTRQ5HQ
p6673
asg10
(lp6674
VU0JBNHJ3X
p6675
aVU0J8ETRH7
p6676
asg14
g15
(S'\x07\xe0\x07\x14\x0b\x1a\x01\x05\xa5\xfb'
p6677
tp6678
Rp6679
sg19
I10
sg20
I4
sbsS'9e40cb59'
p6680
(icore
Match
p6681
(dp6682
g6
(lp6683
VU1CUW4Z7S
p6684
aVU16DF5LQH
p6685
asg10
(lp6686
VU0KCZ16LT
p6687
aVU0J8ETRH7
p6688
asg14
g15
(S'\x07\xe0\t\x01\x104,\x006\xe3'
p6689
tp6690
Rp6691
sg19
I10
sg20
I2
sbsS'74de523e'
p6692
(icore
Match
p6693
(dp6694
g6
(lp6695
VU0HTVEJKC
p6696
aVU1CUW4Z7S
p6697
asg10
(lp6698
VU0J8ETRH7
p6699
aVU0J13UGAF
p6700
asg14
g15
(S'\x07\xe0\t\x08\x0c\x1e2\x02\nG'
p6701
tp6702
Rp6703
sg19
I10
sg20
I9
sbsS'ab9cd08b'
p6704
(icore
Match
p6705
(dp6706
g6
(lp6707
VU0JBNHJ3X
p6708
aVU0J8ETRH7
p6709
asg10
(lp6710
VU0HTQJMHN
p6711
aVU0KA76231
p6712
asg14
g15
(S'\x07\xe0\x0c\x0e\x10\x15\x1a\x01b\xe9'
p6713
tp6714
Rp6715
sg19
I10
sg20
I6
sbsS'4644be9c'
p6716
(icore
Match
p6717
(dp6718
g6
(lp6719
VU0HTVEJKC
p6720
aVU0HTQ6XQQ
p6721
asg10
(lp6722
VU0HTSHTR9
p6723
aVU0HTPM4P8
p6724
asg14
g15
(S'\x07\xe0\x0b\x12\x0c\x02\x17\x05\xd6\x8f'
p6725
tp6726
Rp6727
sg19
I8
sg20
I10
sbsS'cb684928'
p6728
(icore
Match
p6729
(dp6730
g6
(lp6731
VU0J0XLJUD
p6732
aVU0J8ETRH7
p6733
asg10
(lp6734
VU0HTVTLBS
p6735
aVU0JBNHJ3X
p6736
asg14
g15
(S'\x07\xe0\x07\x12\x0e\x11$\x03\xe5k'
p6737
tp6738
Rp6739
sg19
I7
sg20
I10
sbsS'082a9a17'
p6740
(icore
Match
p6741
(dp6742
g6
(lp6743
VU0HTVEJKC
p6744
aVU0HTPS3JS
p6745
asg10
(lp6746
VU0JBNHJ3X
p6747
aVU0HTRQ5HQ
p6748
asg14
g15
(S'\x07\xe0\x0c\x16\x0e\t:\x06e\x99'
p6749
tp6750
Rp6751
sg19
I10
sg20
I8
sbsS'c8b84b76'
p6752
(icore
Match
p6753
(dp6754
g6
(lp6755
VU0HTVTLBS
p6756
aVU0JBNHJ3X
p6757
asg10
(lp6758
VU0HTSHTR9
p6759
aVU0J0XLJUD
p6760
asg14
g15
(S'\x07\xe0\x07\x1a\x0b1\t\x0b\xa2.'
p6761
tp6762
Rp6763
sg19
I10
sg20
I9
sbsS'e8e19fbf'
p6764
(icore
Match
p6765
(dp6766
g6
(lp6767
VU0KA76231
p6768
aVU1CUW4Z7S
p6769
asg10
(lp6770
VU0J8ETRH7
p6771
aVU0J13UGAF
p6772
asg14
g15
(S'\x07\xe0\n\x04\x100:\x0c\xde\x95'
p6773
tp6774
Rp6775
sg19
I7
sg20
I10
sbsS'09232207'
p6776
(icore
Match
p6777
(dp6778
g6
(lp6779
VU0HTQJMHN
p6780
aVU0JBNHJ3X
p6781
asg10
(lp6782
VU0HTPM4P8
p6783
aVU0HTRQ5HQ
p6784
asg14
g15
(S'\x07\xe0\x0b\x19\x0f\r\x1c\x01\x1e5'
p6785
tp6786
Rp6787
sg19
I8
sg20
I10
sbsS'3f4d17cc'
p6788
(icore
Match
p6789
(dp6790
g6
(lp6791
VU0HTVTLBS
p6792
aVU0J0XLJUD
p6793
asg10
(lp6794
VU0HTVEJKC
p6795
aVU0HTJ2DK6
p6796
asg14
g15
(S'\x07\xe0\x0b\x19\x0c4\x19\x07\xdcr'
p6797
tp6798
Rp6799
sg19
I10
sg20
I8
sbsS'd0c524b2'
p6800
(icore
Match
p6801
(dp6802
g6
(lp6803
VU0KA76231
p6804
aVU1CUW4Z7S
p6805
asg10
(lp6806
VU0HTQ6XQQ
p6807
aVU0J8ETRH7
p6808
asg14
g15
(S'\x07\xe0\t\x10\x0f0\x0c\x05\xcc\xae'
p6809
tp6810
Rp6811
sg19
I5
sg20
I10
sbsS'418b3cbd'
p6812
(icore
Match
p6813
(dp6814
g6
(lp6815
VU0KA76231
p6816
aVU0HTQ6XQQ
p6817
asg10
(lp6818
VU0JBNHJ3X
p6819
aVU0HTPM4P8
p6820
asg14
g15
(S'\x07\xe0\x0c\x0c\r\x03\x1b\x083\x18'
p6821
tp6822
Rp6823
sg19
I6
sg20
I10
sbsS'13f34dd5'
p6824
(icore
Match
p6825
(dp6826
g6
(lp6827
VU0JBNHJ3X
p6828
aVU0J8ETRH7
p6829
asg10
(lp6830
VU0HTPM4P8
p6831
aVU0KA76231
p6832
asg14
g15
(S'\x07\xe0\x0b\x17\x0f\x11\x18\x02\xcb\x7f'
p6833
tp6834
Rp6835
sg19
I8
sg20
I10
sbsS'4a9e4324'
p6836
(icore
Match
p6837
(dp6838
g6
(lp6839
VU0HTPS3JS
p6840
aVU0J0XLJUD
p6841
asg10
(lp6842
VU0KCZ16LT
p6843
aVU0JBNHJ3X
p6844
asg14
g15
(S'\x07\xe0\x0c\x15\x0c\x04\x08\x08\xf3\xf9'
p6845
tp6846
Rp6847
sg19
I10
sg20
I4
sbsS'0e17a119'
p6848
(icore
Match
p6849
(dp6850
g6
(lp6851
VU17V6C5K6
p6852
aVU0J8ETRH7
p6853
asg10
(lp6854
VU0JBNHJ3X
p6855
aVU0KCZ16LT
p6856
asg14
g15
(S'\x07\xe0\x07\x1a\x0e\x12\x15\x00F\x86'
p6857
tp6858
Rp6859
sg19
I1
sg20
I10
sbsS'59fd1a52'
p6860
(icore
Match
p6861
(dp6862
g6
(lp6863
VU0KA76231
p6864
aVU0J8ETRH7
p6865
asg10
(lp6866
VU0HTPM4P8
p6867
aVU1CUW4Z7S
p6868
asg14
g15
(S'\x07\xe0\n\x1a\x0e\n*\x0evW'
p6869
tp6870
Rp6871
sg19
I8
sg20
I10
sbsS'1f733bf8'
p6872
(icore
Match
p6873
(dp6874
g6
(lp6875
VU0KA76231
p6876
aVU0HTPM4P8
p6877
asg10
(lp6878
VU0JBNHJ3X
p6879
aVU0HTVTLBS
p6880
asg14
g15
(S'\x07\xe0\x0b\x0f\x0e\x19\x15\nC('
p6881
tp6882
Rp6883
sg19
I10
sg20
I6
sbsS'c4fe5f39'
p6884
(icore
Match
p6885
(dp6886
g6
(lp6887
VU0JBNHJ3X
p6888
aVU0HTPM4P8
p6889
asg10
(lp6890
VU0J0XLJUD
p6891
aVU0J8ETRH7
p6892
asg14
g15
(S'\x07\xe0\x08\t\x0c\x14\x0b\t\x1f$'
p6893
tp6894
Rp6895
sg19
I10
sg20
I3
sbsS'1f1c55c2'
p6896
(icore
Match
p6897
(dp6898
g6
(lp6899
VU0HTPS3JS
p6900
aVU0HTQ6XQQ
p6901
asg10
(lp6902
VU0KA76231
p6903
aVU0HTVTLBS
p6904
asg14
g15
(S'\x07\xe0\x0c\t\x0e75\r\xf4\x16'
p6905
tp6906
Rp6907
sg19
I5
sg20
I10
sbsS'a4d0e636'
p6908
(icore
Match
p6909
(dp6910
g6
(lp6911
VU0HTPUK8R
p6912
aVU0J0XLJUD
p6913
asg10
(lp6914
VU0JBNHJ3X
p6915
aVU0J8ETRH7
p6916
asg14
g15
(S'\x07\xe0\t\x10\x12\x03\x08\x02y8'
p6917
tp6918
Rp6919
sg19
I10
sg20
I7
sbsS'9e1a2975'
p6920
(icore
Match
p6921
(dp6922
g6
(lp6923
VU0HTQ6XQQ
p6924
aVU0J0XLJUD
p6925
asg10
(lp6926
VU0HTQJMHN
p6927
aVU0HTVEJKC
p6928
asg14
g15
(S'\x07\xe0\t\x1a\x0c\x17/\x0b\xfb\\'
p6929
tp6930
Rp6931
sg19
I10
sg20
I5
sbsS'b9ffed4d'
p6932
(icore
Match
p6933
(dp6934
g6
(lp6935
VU0KA76231
p6936
aVU1CUW4Z7S
p6937
asg10
(lp6938
VU0HTPM4P8
p6939
aVU0HTR4KRT
p6940
asg14
g15
(S'\x07\xe0\n\x12\x10\x06;\x07\xa9\x9a'
p6941
tp6942
Rp6943
sg19
I6
sg20
I10
sbsS'670aa243'
p6944
(icore
Match
p6945
(dp6946
g6
(lp6947
VU0HTQJMHN
p6948
aVU0HTQ6XQQ
p6949
asg10
(lp6950
VU0J0XLJUD
p6951
aVU0HTJ2DK6
p6952
asg14
g15
(S'\x07\xe0\t\x14\x0b\x03$\x05.\x81'
p6953
tp6954
Rp6955
sg19
I5
sg20
I10
sbsS'3fa9e4b2'
p6956
(icore
Match
p6957
(dp6958
g6
(lp6959
VU0W5T83EK
p6960
aVU0KCZ16LT
p6961
asg10
(lp6962
VU0J8ETRH7
p6963
aVU07V0F5AS
p6964
asg14
g15
(S'\x07\xe0\x07\x16\x0e(\t\n\x15\xd8'
p6965
tp6966
Rp6967
sg19
I8
sg20
I10
sbsS'16eaff19'
p6968
(icore
Match
p6969
(dp6970
g6
(lp6971
VU0HTQ6XQQ
p6972
aVU0HTPS3JS
p6973
asg10
(lp6974
VU0HTPM4P8
p6975
aVU0J0XLJUD
p6976
asg14
g15
(S'\x07\xe0\x0c\r\r\x0c4\x04F\x88'
p6977
tp6978
Rp6979
sg19
I10
sg20
I8
sbsS'1187003b'
p6980
(icore
Match
p6981
(dp6982
g6
(lp6983
VU0J13UGAF
p6984
aVU0J8ETRH7
p6985
asg10
(lp6986
VU0KCZ16LT
p6987
aVU1CUW4Z7S
p6988
asg14
g15
(S'\x07\xe0\t\x06\x0b\x10\r\x08T\xb1'
p6989
tp6990
Rp6991
sg19
I2
sg20
I10
sbsS'bcee5de0'
p6992
(icore
Match
p6993
(dp6994
g6
(lp6995
VU0HTJ2DK6
p6996
aVU0J0XLJUD
p6997
asg10
(lp6998
VU0HTQJMHN
p6999
aVU0HTPS3JS
p7000
asg14
g15
(S"\x07\xe0\x0b\x01\r\x14\x1b\x00!'"
p7001
tp7002
Rp7003
sg19
I10
sg20
I8
sbsS'bd383b8a'
p7004
(icore
Match
p7005
(dp7006
g6
(lp7007
VU0HTVTLBS
p7008
aVU0HTJ2DK6
p7009
asg10
(lp7010
VU0HTSHTR9
p7011
aVU0HTPS3JS
p7012
asg14
g15
(S'\x07\xe0\x0b\x0e\x0e\x008\x02\xea<'
p7013
tp7014
Rp7015
sg19
I10
sg20
I6
sbsS'ef34dea1'
p7016
(icore
Match
p7017
(dp7018
g6
(lp7019
VU0HTVEJKC
p7020
aVU0HTJ2DK6
p7021
asg10
(lp7022
VU0HTSHTR9
p7023
aVU0HTPM4P8
p7024
asg14
g15
(S'\x07\xe0\x0b\x11\n!:\x0b\x0b\x1a'
p7025
tp7026
Rp7027
sg19
I9
sg20
I10
sbsS'de31d7f5'
p7028
(icore
Match
p7029
(dp7030
g6
(lp7031
VU0HTRQ5HQ
p7032
aVU0HTVTLBS
p7033
asg10
(lp7034
VU0HTPM4P8
p7035
aVU0HTQ6XQQ
p7036
asg14
g15
(S'\x07\xe0\x08\x1a\x118+\x01\x9c\x0e'
p7037
tp7038
Rp7039
sg19
I10
sg20
I6
sbsS'bf664ceb'
p7040
(icore
Match
p7041
(dp7042
g6
(lp7043
VU0HTQJMHN
p7044
aVU0HTQ6XQQ
p7045
asg10
(lp7046
VU0HTPM4P8
p7047
aVU0HTR4KRT
p7048
asg14
g15
(S'\x07\xe0\x0b\t\x11\x15,\x0e\x8d\xf8'
p7049
tp7050
Rp7051
sg19
I10
sg20
I5
sbsS'd2b24cac'
p7052
(icore
Match
p7053
(dp7054
g6
(lp7055
VU17V6C5K6
p7056
aVU0J8ETRH7
p7057
asg10
(lp7058
VU0KA76231
p7059
aVU1CUW4Z7S
p7060
asg14
g15
(S'\x07\xe0\n\x13\r;5\x04\x87\x89'
p7061
tp7062
Rp7063
sg19
I9
sg20
I10
sbsS'af716120'
p7064
(icore
Match
p7065
(dp7066
g6
(lp7067
VU0KA76231
p7068
aVU1CUW4Z7S
p7069
asg10
(lp7070
VU0JBNHJ3X
p7071
aVU0HTRQ5HQ
p7072
asg14
g15
(S'\x07\xe0\n\x03\x10:\x1a\x03\x96;'
p7073
tp7074
Rp7075
sg19
I10
sg20
I9
sbsS'bc1cf4df'
p7076
(icore
Match
p7077
(dp7078
g6
(lp7079
VU0J13UGAF
p7080
aVU0J8ETRH7
p7081
asg10
(lp7082
VU0KCZ16LT
p7083
aVU1CUW4Z7S
p7084
asg14
g15
(S'\x07\xe0\t\x06\x0b\x10\x08\x02x|'
p7085
tp7086
Rp7087
sg19
I10
sg20
I6
sbsS'ba59944e'
p7088
(icore
Match
p7089
(dp7090
g6
(lp7091
VU0HTQJMHN
p7092
aVU0HTJ2DK6
p7093
asg10
(lp7094
VU0HTVEJKC
p7095
aVU0KCZ16LT
p7096
asg14
g15
(S'\x07\xe0\x0b\x18\x0f9\x19\x06\xb1\xf2'
p7097
tp7098
Rp7099
sg19
I8
sg20
I10
sbsS'13e25523'
p7100
(icore
Match
p7101
(dp7102
g6
(lp7103
VU0HTVTLBS
p7104
aVU0JBNHJ3X
p7105
asg10
(lp7106
VU0J8ETRH7
p7107
aVU17V6C5K6
p7108
asg14
g15
(S'\x07\xe0\x07\x13\n\x0f0\x026\xff'
p7109
tp7110
Rp7111
sg19
I10
sg20
I9
sbsS'109b48a9'
p7112
(icore
Match
p7113
(dp7114
g6
(lp7115
VU0HTVEJKC
p7116
aVU0J0XLJUD
p7117
asg10
(lp7118
VU0HTPM4P8
p7119
aVU0HTVTLBS
p7120
asg14
g15
(S'\x07\xe0\x0c\x01\x0c6\x15\x019\xa1'
p7121
tp7122
Rp7123
sg19
I4
sg20
I10
sbsS'896eb935'
p7124
(icore
Match
p7125
(dp7126
g6
(lp7127
VU0HTQJMHN
p7128
aVU0HTVEJKC
p7129
asg10
(lp7130
VU0J0XLJUD
p7131
aVU0HTQ6XQQ
p7132
asg14
g15
(S'\x07\xe0\x08\x08\x11)\x0f\x0b\xebi'
p7133
tp7134
Rp7135
sg19
I10
sg20
I2
sbsS'2a4158fb'
p7136
(icore
Match
p7137
(dp7138
g6
(lp7139
VU0JBNHJ3X
p7140
aVU0KA76231
p7141
asg10
(lp7142
VU0HTSHTR9
p7143
aVU0J8ETRH7
p7144
asg14
g15
(S'\x07\xe0\x0c\r\x0c&(\x02\xa2\x0c'
p7145
tp7146
Rp7147
sg19
I1
sg20
I10
sbsS'69288a28'
p7148
(icore
Match
p7149
(dp7150
g6
(lp7151
VU0KCZ16LT
p7152
aVU0J0XLJUD
p7153
asg10
(lp7154
VU0HTVTLBS
p7155
aVU07V0F5AS
p7156
asg14
g15
(S'\x07\xe0\x08\x11\x10 \x1f\t]\xc8'
p7157
tp7158
Rp7159
sg19
I6
sg20
I10
sbsS'71e20f88'
p7160
(icore
Match
p7161
(dp7162
g6
(lp7163
VU17V6C5K6
p7164
aVU0J0XLJUD
p7165
asg10
(lp7166
VU0HTVTLBS
p7167
aVU0JBNHJ3X
p7168
asg14
g15
(S'\x07\xe0\n\x03\x0c"!\x0b\xf8\xc3'
p7169
tp7170
Rp7171
sg19
I6
sg20
I10
sbsS'3cce7383'
p7172
(icore
Match
p7173
(dp7174
g6
(lp7175
VU0J0XLJUD
p7176
aVU0HTVEJKC
p7177
asg10
(lp7178
VU0HTPM4P8
p7179
aVU0HTSHTR9
p7180
asg14
g15
(S'\x07\xe0\x0c\x0e\x0c%\x1b\x0c\x83\x9e'
p7181
tp7182
Rp7183
sg19
I9
sg20
I10
sbsS'3035d4f1'
p7184
(icore
Match
p7185
(dp7186
g6
(lp7187
VU0HTPS3JS
p7188
aVU0KCZ16LT
p7189
asg10
(lp7190
VU0HTSHTR9
p7191
aVU0HTVEJKC
p7192
asg14
g15
(S'\x07\xe0\x0c\x17\n\x1c\x1b\x03S\xb2'
p7193
tp7194
Rp7195
sg19
I10
sg20
I7
sbsS'307bc3c1'
p7196
(icore
Match
p7197
(dp7198
g6
(lp7199
VU0HTPM4P8
p7200
aVU0HTQ6XQQ
p7201
asg10
(lp7202
VU0HTVEJKC
p7203
aVU0HTVTLBS
p7204
asg14
g15
(S'\x07\xe0\x07\x1a\x11\x19(\x0f-\x8a'
p7205
tp7206
Rp7207
sg19
I10
sg20
I7
sbsS'e108b9c4'
p7208
(icore
Match
p7209
(dp7210
g6
(lp7211
VU0JBNHJ3X
p7212
aVU0KCZ16LT
p7213
asg10
(lp7214
VU0KA76231
p7215
aVU1CUW4Z7S
p7216
asg14
g15
(S'\x07\xe0\x0b\x1d\x0b33\x06?4'
p7217
tp7218
Rp7219
sg19
I10
sg20
I8
sbsS'9c719aba'
p7220
(icore
Match
p7221
(dp7222
g6
(lp7223
VU0HTVTLBS
p7224
aVU0HTPM4P8
p7225
asg10
(lp7226
VU0JBNHJ3X
p7227
aVU0J8ETRH7
p7228
asg14
g15
(S'\x07\xe0\x08\x11\x11\x05\x01\t\xe1\xd5'
p7229
tp7230
Rp7231
sg19
I10
sg20
I9
sbsS'd2450480'
p7232
(icore
Match
p7233
(dp7234
g6
(lp7235
VU0HTQ6XQQ
p7236
aVU1CUW4Z7S
p7237
asg10
(lp7238
VU0HTQJMHN
p7239
aVU0HTVTLBS
p7240
asg14
g15
(S'\x07\xe0\x07\x0f\x11$\x1c\r(^'
p7241
tp7242
Rp7243
sg19
I10
sg20
I7
sbsS'74c7f1ce'
p7244
(icore
Match
p7245
(dp7246
g6
(lp7247
VU0JBNHJ3X
p7248
aVU0HTQ6XQQ
p7249
asg10
(lp7250
VU0HTPM4P8
p7251
aVU0J8ETRH7
p7252
asg14
g15
(S'\x07\xe0\x0b\x12\x12\x0c,\x0b`\xc1'
p7253
tp7254
Rp7255
sg19
I10
sg20
I5
sbsS'3c894309'
p7256
(icore
Match
p7257
(dp7258
g6
(lp7259
VU0KA76231
p7260
aVU0J8ETRH7
p7261
asg10
(lp7262
VU1CUW4Z7S
p7263
aVU0JBNHJ3X
p7264
asg14
g15
(S'\x07\xe0\x08\x13\x0b-\x15\x029\x83'
p7265
tp7266
Rp7267
sg19
I4
sg20
I10
sbsS'a636b26b'
p7268
(icore
Match
p7269
(dp7270
g6
(lp7271
VU0HTQJMHN
p7272
aVU0HTPS3JS
p7273
asg10
(lp7274
VU0J8ETRH7
p7275
aVU0JBNHJ3X
p7276
asg14
g15
(S'\x07\xe0\x07\x19\x0f\t)\x03\x0c*'
p7277
tp7278
Rp7279
sg19
I10
sg20
I3
sbsS'f779aec9'
p7280
(icore
Match
p7281
(dp7282
g6
(lp7283
VU0JBNHJ3X
p7284
aVU0HTVTLBS
p7285
asg10
(lp7286
VU0HTQJMHN
p7287
aVU0HTPM4P8
p7288
asg14
g15
(S'\x07\xe0\n\x1f\x101\x10\x0e\xc2\xab'
p7289
tp7290
Rp7291
sg19
I10
sg20
I9
sbsS'1d1d6227'
p7292
(icore
Match
p7293
(dp7294
g6
(lp7295
VU0KA76231
p7296
aVU0J8ETRH7
p7297
asg10
(lp7298
VU1CUW4Z7S
p7299
aVU0JBNHJ3X
p7300
asg14
g15
(S'\x07\xe0\t\x10\n8\x00\t] '
p7301
tp7302
Rp7303
sg19
I7
sg20
I10
sbsS'672246fc'
p7304
(icore
Match
p7305
(dp7306
g6
(lp7307
VU0JBNHJ3X
p7308
aVU0HTPUK8R
p7309
asg10
(lp7310
VU0J13UGAF
p7311
aVU0J8ETRH7
p7312
asg14
g15
(S'\x07\xe0\t\x0c\x11\x0e\x13\x00\xb4\xab'
p7313
tp7314
Rp7315
sg19
I10
sg20
I8
sbsS'0dbb1dba'
p7316
(icore
Match
p7317
(dp7318
g6
(lp7319
VU0HTVTLBS
p7320
aVU0HTPM4P8
p7321
asg10
(lp7322
VU0HTSHTR9
p7323
aVU0HTR4KRT
p7324
asg14
g15
(S'\x07\xe0\x0c\x05\x0b"\x0e\n\xec\xa0'
p7325
tp7326
Rp7327
sg19
I10
sg20
I8
sbsS'99becc5a'
p7328
(icore
Match
p7329
(dp7330
g6
(lp7331
VU0HTPS3JS
p7332
aVU0J0XLJUD
p7333
asg10
(lp7334
VU0HTPM4P8
p7335
aVU0J8ETRH7
p7336
asg14
g15
(S'\x07\xe0\x0c\x14\r50\x0f\x1c&'
p7337
tp7338
Rp7339
sg19
I10
sg20
I3
sbsS'27ec5ef0'
p7340
(icore
Match
p7341
(dp7342
g6
(lp7343
VU0KA76231
p7344
aVU1CUW4Z7S
p7345
asg10
(lp7346
VU0J13UGAF
p7347
aVU0J8ETRH7
p7348
asg14
g15
(S'\x07\xe0\t\x0c\x11\x0e\x00\t&`'
p7349
tp7350
Rp7351
sg19
I10
sg20
I6
sbsS'f3b58b1e'
p7352
(icore
Match
p7353
(dp7354
g6
(lp7355
VU0HTJ2DK6
p7356
aVU0HTVTLBS
p7357
asg10
(lp7358
VU0HTPM4P8
p7359
aVU0HTSHTR9
p7360
asg14
g15
(S'\x07\xe0\n\x07\x0b7\x03\x04\xea\xaa'
p7361
tp7362
Rp7363
sg19
I10
sg20
I8
sbsS'a67c0c32'
p7364
(icore
Match
p7365
(dp7366
g6
(lp7367
VU1CUW4Z7S
p7368
aVU0KA76231
p7369
asg10
(lp7370
VU0HTSHTR9
p7371
aVU0JBNHJ3X
p7372
asg14
g15
(S'\x07\xe0\x0c\x01\x10\x0f!\x08\x0c\xad'
p7373
tp7374
Rp7375
sg19
I6
sg20
I10
sbsS'a784315b'
p7376
(icore
Match
p7377
(dp7378
g6
(lp7379
VU0HTPM4P8
p7380
aVU0KCZ16LT
p7381
asg10
(lp7382
VU0HTSHTR9
p7383
aVU0JBNHJ3X
p7384
asg14
g15
(S'\x07\xe0\x07\x1d\x0c;4\x0cz}'
p7385
tp7386
Rp7387
sg19
I10
sg20
I5
sbsS'cd0ed323'
p7388
(icore
Match
p7389
(dp7390
g6
(lp7391
VU0W5T83EK
p7392
aVU0HTRQ5HQ
p7393
asg10
(lp7394
VU0HTPM4P8
p7395
aVU0HTQ6XQQ
p7396
asg14
g15
(S'\x07\xe0\x08\x1a\x11/,\tg\xf1'
p7397
tp7398
Rp7399
sg19
I10
sg20
I6
sbsS'48520cf9'
p7400
(icore
Match
p7401
(dp7402
g6
(lp7403
VU0JBNHJ3X
p7404
aVU0W5T83EK
p7405
asg10
(lp7406
VU0J0XLJUD
p7407
aVU0HTJ2DK6
p7408
asg14
g15
(S'\x07\xe0\x07\x1d\x116;\x03\xab\xc9'
p7409
tp7410
Rp7411
sg19
I6
sg20
I10
sbsS'26bbbfc9'
p7412
(icore
Match
p7413
(dp7414
g6
(lp7415
VU0HTQJMHN
p7416
aVU0JBNHJ3X
p7417
asg10
(lp7418
VU0HTPS3JS
p7419
aVU0HTVEJKC
p7420
asg14
g15
(S'\x07\xe0\x07\x16\x0b7+\x0e\x19\x13'
p7421
tp7422
Rp7423
sg19
I6
sg20
I10
sbsS'645241a8'
p7424
(icore
Match
p7425
(dp7426
g6
(lp7427
VU0JBNHJ3X
p7428
aVU1CUW4Z7S
p7429
asg10
(lp7430
VU0KCZ16LT
p7431
aVU0J8ETRH7
p7432
asg14
g15
(S'\x07\xe0\x0b\x15\x0f#5\x03)\xab'
p7433
tp7434
Rp7435
sg19
I8
sg20
I10
sbsS'c4f67072'
p7436
(icore
Match
p7437
(dp7438
g6
(lp7439
VU1CUW4Z7S
p7440
aVU17V6C5K6
p7441
asg10
(lp7442
VU0KA76231
p7443
aVU0J8ETRH7
p7444
asg14
g15
(S'\x07\xe0\x08\t\x0f\x12%\x08\xcfW'
p7445
tp7446
Rp7447
sg19
I10
sg20
I1
sbsS'dcc5517d'
p7448
(icore
Match
p7449
(dp7450
g6
(lp7451
VU0HTVTLBS
p7452
aVU0JBNHJ3X
p7453
asg10
(lp7454
VU0KA76231
p7455
aVU0J8ETRH7
p7456
asg14
g15
(S'\x07\xe0\x0c\x07\r2\x01\r\xf5\xec'
p7457
tp7458
Rp7459
sg19
I10
sg20
I5
sbsS'e3daeb10'
p7460
(icore
Match
p7461
(dp7462
g6
(lp7463
VU0HTVTLBS
p7464
aVU0J0XLJUD
p7465
asg10
(lp7466
VU0KCZ16LT
p7467
aVU0HTR4KRT
p7468
asg14
g15
(S'\x07\xe0\x0c\x07\n:\x19\n\xbe%'
p7469
tp7470
Rp7471
sg19
I8
sg20
I10
sbsS'9f440a00'
p7472
(icore
Match
p7473
(dp7474
g6
(lp7475
VU0HTVTLBS
p7476
aVU0HTPUK8R
p7477
asg10
(lp7478
VU0HTSHTR9
p7479
aVU0HTJ2DK6
p7480
asg14
g15
(S'\x07\xe0\t\x1d\x0c/+\x08y\xd3'
p7481
tp7482
Rp7483
sg19
I10
sg20
I7
sbsS'c1bcd991'
p7484
(icore
Match
p7485
(dp7486
g6
(lp7487
VU0KCZ16LT
p7488
aVU0JBNHJ3X
p7489
asg10
(lp7490
VU0HTVEJKC
p7491
aVU0HTPS3JS
p7492
asg14
g15
(S'\x07\xe0\t\x1c\x0b\x1a*\x01n\xc2'
p7493
tp7494
Rp7495
sg19
I7
sg20
I10
sbsS'8a2ac6fd'
p7496
(icore
Match
p7497
(dp7498
g6
(lp7499
VU0KA76231
p7500
aVU0HTPM4P8
p7501
asg10
(lp7502
VU0JBNHJ3X
p7503
aVU0J8ETRH7
p7504
asg14
g15
(S'\x07\xe0\x0b\x11\x11\x1b\n\x0f\x04\xe2'
p7505
tp7506
Rp7507
sg19
I10
sg20
I5
sbsS'ae4c6b4e'
p7508
(icore
Match
p7509
(dp7510
g6
(lp7511
VU0HTJ2DK6
p7512
aVU0J0XLJUD
p7513
asg10
(lp7514
VU0HTPM4P8
p7515
aVU0HTPS3JS
p7516
asg14
g15
(S'\x07\xe0\n\x0e\n6\x00\x06\xf6\xb8'
p7517
tp7518
Rp7519
sg19
I8
sg20
I10
sbsS'f5373b6b'
p7520
(icore
Match
p7521
(dp7522
g6
(lp7523
VU0J13UGAF
p7524
aVU0HTVTLBS
p7525
asg10
(lp7526
VU0KA76231
p7527
aVU0HTPM4P8
p7528
asg14
g15
(S'\x07\xe0\x07\x1c\x11\x049\x04\x93\x04'
p7529
tp7530
Rp7531
sg19
I7
sg20
I10
sbsS'74e3fda1'
p7532
(icore
Match
p7533
(dp7534
g6
(lp7535
VU0J8ETRH7
p7536
aVU0JBNHJ3X
p7537
asg10
(lp7538
VU0KA76231
p7539
aVU0KCZ16LT
p7540
asg14
g15
(S'\x07\xe0\x0c\t\x11\x1f\x0e\x06U%'
p7541
tp7542
Rp7543
sg19
I10
sg20
I8
sbsS'111dbb45'
p7544
(icore
Match
p7545
(dp7546
g6
(lp7547
VU0JBNHJ3X
p7548
aVU16DF5LQH
p7549
asg10
(lp7550
VU0KA76231
p7551
aVU0HTVTLBS
p7552
asg14
g15
(S'\x07\xe0\t\x15\x10\x15\x14\n%\x16'
p7553
tp7554
Rp7555
sg19
I10
sg20
I4
sbsS'a11de077'
p7556
(icore
Match
p7557
(dp7558
g6
(lp7559
VU0J8ETRH7
p7560
aVU0JBNHJ3X
p7561
asg10
(lp7562
VU0KA76231
p7563
aVU1CUW4Z7S
p7564
asg14
g15
(S'\x07\xe0\n\n\x10\x023\x085\x0e'
p7565
tp7566
Rp7567
sg19
I9
sg20
I10
sbsS'ce4d112e'
p7568
(icore
Match
p7569
(dp7570
g6
(lp7571
VU0KCZ16LT
p7572
aVU1CUW4Z7S
p7573
asg10
(lp7574
VU0J13UGAF
p7575
aVU0JBNHJ3X
p7576
asg14
g15
(S'\x07\xe0\t\x17\x0f2\x12\ns\x9f'
p7577
tp7578
Rp7579
sg19
I9
sg20
I10
sbsS'3557b345'
p7580
(icore
Match
p7581
(dp7582
g6
(lp7583
VU21CBD6KX
p7584
aVU16DF5LQH
p7585
asg10
(lp7586
VU0HTPM4P8
p7587
aVU1CUW4Z7S
p7588
asg14
g15
(S'\x07\xe0\x08\x17\x0f\x1c\n\x05P\xef'
p7589
tp7590
Rp7591
sg19
I10
sg20
I7
sbsS'57dbb5d8'
p7592
(icore
Match
p7593
(dp7594
g6
(lp7595
VU0HTR4KRT
p7596
aVU0HTVTLBS
p7597
asg10
(lp7598
VU0HTVEJKC
p7599
aVU0HTJ2DK6
p7600
asg14
g15
(S'\x07\xe0\x0c\x06\r\t$\x0e\xa6\xfe'
p7601
tp7602
Rp7603
sg19
I10
sg20
I6
sbsS'303be1d1'
p7604
(icore
Match
p7605
(dp7606
g6
(lp7607
VU0HTRQ5HQ
p7608
aVU1CUW4Z7S
p7609
asg10
(lp7610
VU0KCZ16LT
p7611
aVU0HTPS3JS
p7612
asg14
g15
(S'\x07\xe0\x0c\x16\x10\x114\x07\xbb\xdf'
p7613
tp7614
Rp7615
sg19
I10
sg20
I9
sbsS'5db7cb98'
p7616
(icore
Match
p7617
(dp7618
g6
(lp7619
VU0HTRQ5HQ
p7620
aVU0W5T83EK
p7621
asg10
(lp7622
VU0HTPM4P8
p7623
aVU0HTQJMHN
p7624
asg14
g15
(S'\x07\xe0\x08\x1a\x11\x1e\x0e\ny,'
p7625
tp7626
Rp7627
sg19
I9
sg20
I10
sbsS'807e4242'
p7628
(icore
Match
p7629
(dp7630
g6
(lp7631
VU0KCZ16LT
p7632
aVU0HTRQ5HQ
p7633
asg10
(lp7634
VU0J8ETRH7
p7635
aVU0JBNHJ3X
p7636
asg14
g15
(S'\x07\xe0\x07\x14\x0e\x08\x14\rz\xf0'
p7637
tp7638
Rp7639
sg19
I10
sg20
I9
sbsS'8bcd32eb'
p7640
(icore
Match
p7641
(dp7642
g6
(lp7643
VU0KCZ16LT
p7644
aVU0J0XLJUD
p7645
asg10
(lp7646
VU0HTVTLBS
p7647
aVU07V0F5AS
p7648
asg14
g15
(S'\x07\xe0\x08\x11\x10 \x1a\x04\xedw'
p7649
tp7650
Rp7651
sg19
I2
sg20
I10
sbsS'13ea24c6'
p7652
(icore
Match
p7653
(dp7654
g6
(lp7655
VU0HTPS3JS
p7656
aVU0HTVEJKC
p7657
asg10
(lp7658
VU0HTPM4P8
p7659
aVU0J0XLJUD
p7660
asg14
g15
(S'\x07\xe0\x0c\x10\x10!\x04\x00\x1b\xed'
p7661
tp7662
Rp7663
sg19
I10
sg20
I5
sbsS'466ce94f'
p7664
(icore
Match
p7665
(dp7666
g6
(lp7667
VU0J8ETRH7
p7668
aVU0HTR4KRT
p7669
asg10
(lp7670
VU0HTSHTR9
p7671
aVU0JBNHJ3X
p7672
asg14
g15
(S'\x07\xe0\x0b\x0f\x11\x1d2\x08t\xb5'
p7673
tp7674
Rp7675
sg19
I10
sg20
I7
sbsS'85fd7dbd'
p7676
(icore
Match
p7677
(dp7678
g6
(lp7679
VU0HTQJMHN
p7680
aVU0HTVEJKC
p7681
asg10
(lp7682
VU0J0XLJUD
p7683
aVU0HTQ6XQQ
p7684
asg14
g15
(S'\x07\xe0\x08\x08\x11)\x08\x0b\x11\xb0'
p7685
tp7686
Rp7687
sg19
I2
sg20
I10
sbsS'788dcf32'
p7688
(icore
Match
p7689
(dp7690
g6
(lp7691
VU0HTPS3JS
p7692
aVU0HTQ6XQQ
p7693
asg10
(lp7694
VU0HTPM4P8
p7695
aVU0HTVEJKC
p7696
asg14
g15
(S'\x07\xe0\x0c\x08\x10:\x1a\x01K\xef'
p7697
tp7698
Rp7699
sg19
I10
sg20
I4
sbsS'd64bf89b'
p7700
(icore
Match
p7701
(dp7702
g6
(lp7703
VU0J13UGAF
p7704
aVU0HTPS3JS
p7705
asg10
(lp7706
VU0HTSHTR9
p7707
aVU0HTVTLBS
p7708
asg14
g15
(S'\x07\xe0\t\x07\x0b8\n\x00O\x81'
p7709
tp7710
Rp7711
sg19
I10
sg20
I9
sbsS'5a9924ed'
p7712
(icore
Match
p7713
(dp7714
g6
(lp7715
VU0KCZ16LT
p7716
aVU0HTR4KRT
p7717
asg10
(lp7718
VU0KA76231
p7719
aVU0HTVTLBS
p7720
asg14
g15
(S'\x07\xe0\x0b\x0e\x0e\x1b\x04\x0bH\x0b'
p7721
tp7722
Rp7723
sg19
I7
sg20
I10
sbsS'53e06971'
p7724
(icore
Match
p7725
(dp7726
g6
(lp7727
VU0KA76231
p7728
aVU0HTVEJKC
p7729
asg10
(lp7730
VU0HTQJMHN
p7731
aVU0HTQ6XQQ
p7732
asg14
g15
(S"\x07\xe0\t\x14\x0f;\x10\x0f'\x82"
p7733
tp7734
Rp7735
sg19
I5
sg20
I10
sbsS'3ccae967'
p7736
(icore
Match
p7737
(dp7738
g6
(lp7739
VU0HTVTLBS
p7740
aVU0JBNHJ3X
p7741
asg10
(lp7742
VU0HTSHTR9
p7743
aVU1CUW4Z7S
p7744
asg14
g15
(S'\x07\xe0\x08\x13\x0f\x0f\x15\x01\xbf\x8e'
p7745
tp7746
Rp7747
sg19
I6
sg20
I10
sbsS'840190d7'
p7748
(icore
Match
p7749
(dp7750
g6
(lp7751
VU0KCZ16LT
p7752
aVU0HTSHTR9
p7753
asg10
(lp7754
VU0HTPS3JS
p7755
aVU0JBNHJ3X
p7756
asg14
g15
(S'\x07\xe0\x0c\x17\r9\x07\n\x0b\xa7'
p7757
tp7758
Rp7759
sg19
I10
sg20
I7
sbsS'f73ff3fa'
p7760
(icore
Match
p7761
(dp7762
g6
(lp7763
VU0HTVEJKC
p7764
aVU0J0XLJUD
p7765
asg10
(lp7766
VU0HTQJMHN
p7767
aVU0JBNHJ3X
p7768
asg14
g15
(S'\x07\xe0\t\x16\x11\x1c\x02\r\xb4\xc3'
p7769
tp7770
Rp7771
sg19
I7
sg20
I10
sbsS'4073ecb8'
p7772
(icore
Match
p7773
(dp7774
g6
(lp7775
VU0J0XLJUD
p7776
aVU0W5T83EK
p7777
asg10
(lp7778
VU0HTPM4P8
p7779
aVU0JBNHJ3X
p7780
asg14
g15
(S'\x07\xe0\n\x13\x0e8\x03\x04\xf1^'
p7781
tp7782
Rp7783
sg19
I10
sg20
I9
sbsS'e9e2e402'
p7784
(icore
Match
p7785
(dp7786
g6
(lp7787
VU0HTSHTR9
p7788
aVU0HTPS3JS
p7789
asg10
(lp7790
VU0HTQJMHN
p7791
aVU0HTR4KRT
p7792
asg14
g15
(S'\x07\xe0\x0c\x15\r\x1f\x0b\x01\x83\x96'
p7793
tp7794
Rp7795
sg19
I10
sg20
I9
sbsS'8ab2c814'
p7796
(icore
Match
p7797
(dp7798
g6
(lp7799
VU1CUW4Z7S
p7800
aVU0HTVEJKC
p7801
asg10
(lp7802
VU0KCZ16LT
p7803
aVU0KA76231
p7804
asg14
g15
(S'\x07\xe0\t\x1e\x0b\x10 \x08\x90\x99'
p7805
tp7806
Rp7807
sg19
I5
sg20
I10
sbsS'594dd64d'
p7808
(icore
Match
p7809
(dp7810
g6
(lp7811
VU0HTR4KRT
p7812
aVU0HTPM4P8
p7813
asg10
(lp7814
VU0HTSHTR9
p7815
aVU0JBNHJ3X
p7816
asg14
g15
(S'\x07\xe0\x0c\x15\x0b8*\r\xd3\x0c'
p7817
tp7818
Rp7819
sg19
I10
sg20
I3
sbsS'74d1b66c'
p7820
(icore
Match
p7821
(dp7822
g6
(lp7823
VU0HTVTLBS
p7824
aVU0HTR4KRT
p7825
asg10
(lp7826
VU0HTPM4P8
p7827
aVU0HTSHTR9
p7828
asg14
g15
(S'\x07\xe0\x0b\x02\x10\n3\x0c\xb2\t'
p7829
tp7830
Rp7831
sg19
I10
sg20
I4
sbsS'f7e55109'
p7832
(icore
Match
p7833
(dp7834
g6
(lp7835
VU0HTRQ5HQ
p7836
aVU1CUW4Z7S
p7837
asg10
(lp7838
VU0KCZ16LT
p7839
aVU0HTPS3JS
p7840
asg14
g15
(S'\x07\xe0\x0c\x16\x10\x11"\x04\xday'
p7841
tp7842
Rp7843
sg19
I5
sg20
I10
sbsS'744b03f9'
p7844
(icore
Match
p7845
(dp7846
g6
(lp7847
VU0HTVTLBS
p7848
aVU0J0XLJUD
p7849
asg10
(lp7850
VU0HTVEJKC
p7851
aVU0HTJ2DK6
p7852
asg14
g15
(S'\x07\xe0\x0b\x19\x0b\x10\t\x0e\xc5\xc0'
p7853
tp7854
Rp7855
sg19
I7
sg20
I10
sbsS'02da8493'
p7856
(icore
Match
p7857
(dp7858
g6
(lp7859
VU0HTVTLBS
p7860
aVU0HTR4KRT
p7861
asg10
(lp7862
VU0HTSHTR9
p7863
aVU0HTJ2DK6
p7864
asg14
g15
(S'\x07\xe0\x0b\x08\x0e(2\r\x19\xae'
p7865
tp7866
Rp7867
sg19
I9
sg20
I10
sbsS'12bc1932'
p7868
(icore
Match
p7869
(dp7870
g6
(lp7871
VU0HTPS3JS
p7872
aVU0HTQ6XQQ
p7873
asg10
(lp7874
VU0KA76231
p7875
aVU0HTVTLBS
p7876
asg14
g15
(S'\x07\xe0\x0c\t\x0e7.\x04\xcf{'
p7877
tp7878
Rp7879
sg19
I4
sg20
I10
sbsS'1e709168'
p7880
(icore
Match
p7881
(dp7882
g6
(lp7883
VU1CUW4Z7S
p7884
aVU0KCZ16LT
p7885
asg10
(lp7886
VU0HTVTLBS
p7887
aVU0JBNHJ3X
p7888
asg14
g15
(S'\x07\xe0\t\x16\x10\x119\x0c\x9a\x05'
p7889
tp7890
Rp7891
sg19
I10
sg20
I8
sbsS'1c627f56'
p7892
(icore
Match
p7893
(dp7894
g6
(lp7895
VU0HTSHTR9
p7896
aVU0HTJ2DK6
p7897
asg10
(lp7898
VU0HTQ6XQQ
p7899
aVU0HTVEJKC
p7900
asg14
g15
(S'\x07\xe0\x08\x02\r\x1f\x1d\x0b=\x8b'
p7901
tp7902
Rp7903
sg19
I5
sg20
I10
sbsS'694a4420'
p7904
(icore
Match
p7905
(dp7906
g6
(lp7907
VU1CUW4Z7S
p7908
aVU0KCZ16LT
p7909
asg10
(lp7910
VU0J13UGAF
p7911
aVU0HTPS3JS
p7912
asg14
g15
(S'\x07\xe0\t\x1b\x11)0\x0e4X'
p7913
tp7914
Rp7915
sg19
I10
sg20
I8
sbsS'8216607a'
p7916
(icore
Match
p7917
(dp7918
g6
(lp7919
VU0JBNHJ3X
p7920
aVU1CUW4Z7S
p7921
asg10
(lp7922
VU0KA76231
p7923
aVU0KCZ16LT
p7924
asg14
g15
(S'\x07\xe0\x0b\x1e\x10\x18+\r\x1f\xf6'
p7925
tp7926
Rp7927
sg19
I8
sg20
I10
sbsS'c6c8b820'
p7928
(icore
Match
p7929
(dp7930
g6
(lp7931
VU0HTJ2DK6
p7932
aVU0HTQJMHN
p7933
asg10
(lp7934
VU0HTPM4P8
p7935
aVU0KCZ16LT
p7936
asg14
g15
(S'\x07\xe0\x0c\x01\x10.\x16\x07\x10_'
p7937
tp7938
Rp7939
sg19
I10
sg20
I9
sbsS'3f6a9bef'
p7940
(icore
Match
p7941
(dp7942
g6
(lp7943
VU0HTPM4P8
p7944
aVU0HTJ2DK6
p7945
asg10
(lp7946
VU0JBNHJ3X
p7947
aVU0HTSHTR9
p7948
asg14
g15
(S'\x07\xe0\x08\x05\x0c\x11/\x04\x9d6'
p7949
tp7950
Rp7951
sg19
I10
sg20
I7
sbsS'bcdba235'
p7952
(icore
Match
p7953
(dp7954
g6
(lp7955
VU0KCZ16LT
p7956
aVU0HTPM4P8
p7957
asg10
(lp7958
VU0HTSHTR9
p7959
aVU0JBNHJ3X
p7960
asg14
g15
(S'\x07\xe0\x08\x13\n\x0c\x06\n\x94\x87'
p7961
tp7962
Rp7963
sg19
I10
sg20
I7
sbsS'fde54114'
p7964
(icore
Match
p7965
(dp7966
g6
(lp7967
VU0HTR4KRT
p7968
aVU0HTVTLBS
p7969
asg10
(lp7970
VU0HTSHTR9
p7971
aVU0HTQJMHN
p7972
asg14
g15
(S'\x07\xe0\x0c\x14\x08\x1a\x19\x02q\xc2'
p7973
tp7974
Rp7975
sg19
I10
sg20
I3
sbsS'ab3f9b5e'
p7976
(icore
Match
p7977
(dp7978
g6
(lp7979
VU0W5T83EK
p7980
aVU0J8ETRH7
p7981
asg10
(lp7982
VU1CUW4Z7S
p7983
aVU0J0XLJUD
p7984
asg14
g15
(S'\x07\xe0\n\x15\x0c\x12\x12\n\xf0\x83'
p7985
tp7986
Rp7987
sg19
I4
sg20
I10
sbsS'5ec3d24f'
p7988
(icore
Match
p7989
(dp7990
g6
(lp7991
VU0JBNHJ3X
p7992
aVU0J8ETRH7
p7993
asg10
(lp7994
VU0HTPM4P8
p7995
aVU0KA76231
p7996
asg14
g15
(S'\x07\xe0\x0b\x12\x12\x0c\x0c\rl\xa4'
p7997
tp7998
Rp7999
sg19
I9
sg20
I10
sbsS'9e2c45a4'
p8000
(icore
Match
p8001
(dp8002
g6
(lp8003
VU0HTVTLBS
p8004
aVU0HTR4KRT
p8005
asg10
(lp8006
VU0J0XLJUD
p8007
aVU0KA76231
p8008
asg14
g15
(S'\x07\xe0\x0c\x0c\x0f\x10,\x0e\x10N'
p8009
tp8010
Rp8011
sg19
I10
sg20
I3
sbsS'e31d5e85'
p8012
(icore
Match
p8013
(dp8014
g6
(lp8015
VU0HTQJMHN
p8016
aVU0JBNHJ3X
p8017
asg10
(lp8018
VU0HTVEJKC
p8019
aVU0HTPM4P8
p8020
asg14
g15
(S'\x07\xe0\x08\x12\x11\x002\r\xbe~'
p8021
tp8022
Rp8023
sg19
I4
sg20
I10
sbsS'da05863f'
p8024
(icore
Match
p8025
(dp8026
g6
(lp8027
VU0HTPM4P8
p8028
aVU0KA76231
p8029
asg10
(lp8030
VU0HTRQ5HQ
p8031
aVU0JBNHJ3X
p8032
asg14
g15
(S'\x07\xe0\n\x03\x0e,!\x03N\xcb'
p8033
tp8034
Rp8035
sg19
I10
sg20
I7
sbsS'cbec6bd7'
p8036
(icore
Match
p8037
(dp8038
g6
(lp8039
VU0HTQ6XQQ
p8040
aVU0HTVEJKC
p8041
asg10
(lp8042
VU0HTVTLBS
p8043
aVU0HTQJMHN
p8044
asg14
g15
(S'\x07\xe0\x08\x13\x0b4"\x0c-\x14'
p8045
tp8046
Rp8047
sg19
I10
sg20
I7
sbsS'6f987197'
p8048
(icore
Match
p8049
(dp8050
g6
(lp8051
VU0HTPM4P8
p8052
aVU0J0XLJUD
p8053
asg10
(lp8054
VU0HTPS3JS
p8055
aVU0HTJ2DK6
p8056
asg14
g15
(S'\x07\xe0\x0c\x02\x0c\x0c \x039\x93'
p8057
tp8058
Rp8059
sg19
I10
sg20
I8
sbsS'1e6d5eac'
p8060
(icore
Match
p8061
(dp8062
g6
(lp8063
VU0KA76231
p8064
aVU1CUW4Z7S
p8065
asg10
(lp8066
VU0J8ETRH7
p8067
aVU0J13UGAF
p8068
asg14
g15
(S'\x07\xe0\t\x1e\r\x0e:\x04\xe5\xcd'
p8069
tp8070
Rp8071
sg19
I10
sg20
I5
sbsS'76887285'
p8072
(icore
Match
p8073
(dp8074
g6
(lp8075
VU0HTPM4P8
p8076
aVU0HTQ6XQQ
p8077
asg10
(lp8078
VU0HTQJMHN
p8079
aVU0HTVTLBS
p8080
asg14
g15
(S'\x07\xe0\x08\x1f\x11\x0b\x0f\x0e\xc3\xd7'
p8081
tp8082
Rp8083
sg19
I10
sg20
I7
sbsS'c0080ac7'
p8084
(icore
Match
p8085
(dp8086
g6
(lp8087
VU0HTPM4P8
p8088
aVU07V0F5AS
p8089
asg10
(lp8090
VU0JBNHJ3X
p8091
aVU0J8ETRH7
p8092
asg14
g15
(S'\x07\xe0\x07\x1d\x10\x18\x02\x06\x155'
p8093
tp8094
Rp8095
sg19
I10
sg20
I6
sbsS'148a4f6a'
p8096
(icore
Match
p8097
(dp8098
g6
(lp8099
VU0J8ETRH7
p8100
aVU0JBNHJ3X
p8101
asg10
(lp8102
VU0HTPM4P8
p8103
aVU1CUW4Z7S
p8104
asg14
g15
(S'\x07\xe0\n\x05\x0e+4\x0bl\xfb'
p8105
tp8106
Rp8107
sg19
I1
sg20
I10
sbsS'f202b702'
p8108
(icore
Match
p8109
(dp8110
g6
(lp8111
VU0JBNHJ3X
p8112
aVU0HTVEJKC
p8113
asg10
(lp8114
VU0HTSHTR9
p8115
aVU0HTJ2DK6
p8116
asg14
g15
(S'\x07\xe0\x08\x08\x10\x10\x1b\x0bZ\x13'
p8117
tp8118
Rp8119
sg19
I2
sg20
I10
sbsS'8c93928f'
p8120
(icore
Match
p8121
(dp8122
g6
(lp8123
VU1CUW4Z7S
p8124
aVU0HTVTLBS
p8125
asg10
(lp8126
VU0KA76231
p8127
aVU0J13UGAF
p8128
asg14
g15
(S'\x07\xe0\n\x07\x0e+\x00\x05M\xcb'
p8129
tp8130
Rp8131
sg19
I10
sg20
I8
sbsS'09dbf7a1'
p8132
(icore
Match
p8133
(dp8134
g6
(lp8135
VU0J13UGAF
p8136
aVU0J8ETRH7
p8137
asg10
(lp8138
VU0HTPM4P8
p8139
aVU1CUW4Z7S
p8140
asg14
g15
(S'\x07\xe0\x0b\x0b\x10\x0c1\x04\x02\xa9'
p8141
tp8142
Rp8143
sg19
I7
sg20
I10
sbsS'7ec73161'
p8144
(icore
Match
p8145
(dp8146
g6
(lp8147
VU0HTPS3JS
p8148
aVU0HTVEJKC
p8149
asg10
(lp8150
VU0HTQJMHN
p8151
aVU0HTJ2DK6
p8152
asg14
g15
(S'\x07\xe0\t\x1b\n&\x08\x04\xd5\xe2'
p8153
tp8154
Rp8155
sg19
I6
sg20
I10
sbsS'317d2484'
p8156
(icore
Match
p8157
(dp8158
g6
(lp8159
VU0JBNHJ3X
p8160
aVU0J0XLJUD
p8161
asg10
(lp8162
VU0HTSHTR9
p8163
aVU0J8ETRH7
p8164
asg14
g15
(S'\x07\xe0\x0b\x02\x0b5\x12\x00[{'
p8165
tp8166
Rp8167
sg19
I6
sg20
I10
sbsS'af11eade'
p8168
(icore
Match
p8169
(dp8170
g6
(lp8171
VU0JBNHJ3X
p8172
aVU1CUW4Z7S
p8173
asg10
(lp8174
VU0KA76231
p8175
aVU0KCZ16LT
p8176
asg14
g15
(S'\x07\xe0\t\r\x11\x0f\x14\x0b\xa5\xe0'
p8177
tp8178
Rp8179
sg19
I10
sg20
I9
sbsS'5d3fb748'
p8180
(icore
Match
p8181
(dp8182
g6
(lp8183
VU0KCZ16LT
p8184
aVU0HTVTLBS
p8185
asg10
(lp8186
VU0HTQJMHN
p8187
aVU0HTQ6XQQ
p8188
asg14
g15
(S'\x07\xe0\x0c\x0c\x11+4\x0e}\xbc'
p8189
tp8190
Rp8191
sg19
I10
sg20
I8
sbsS'c4c527b6'
p8192
(icore
Match
p8193
(dp8194
g6
(lp8195
VU0HTVTLBS
p8196
aVU0J8ETRH7
p8197
asg10
(lp8198
VU0J13UGAF
p8199
aVU0KA76231
p8200
asg14
g15
(S'\x07\xe0\x0b\x16\x10#/\x07\x17.'
p8201
tp8202
Rp8203
sg19
I8
sg20
I10
sbsS'4498400b'
p8204
(icore
Match
p8205
(dp8206
g6
(lp8207
VU0HTVTLBS
p8208
aVU0JBNHJ3X
p8209
asg10
(lp8210
VU0JNVCVRT
p8211
aVU1CUW4Z7S
p8212
asg14
g15
(S'\x07\xe0\x08\x1a\n(\x01\x075w'
p8213
tp8214
Rp8215
sg19
I7
sg20
I10
sbsS'fb2c356e'
p8216
(icore
Match
p8217
(dp8218
g6
(lp8219
VU0HTPM4P8
p8220
aVU0J8ETRH7
p8221
asg10
(lp8222
VU0HTRQ5HQ
p8223
aVU0HTVTLBS
p8224
asg14
g15
(S'\x07\xe0\x08\x1a\n\x13\n\x0cp '
p8225
tp8226
Rp8227
sg19
I5
sg20
I10
sbsS'c3e7ff7c'
p8228
(icore
Match
p8229
(dp8230
g6
(lp8231
VU0HTVTLBS
p8232
aVU0HTPS3JS
p8233
asg10
(lp8234
VU0HTVEJKC
p8235
aVU0HTSHTR9
p8236
asg14
g15
(S'\x07\xe0\x07\x1b\x0b,\x1a\x0eq\xa1'
p8237
tp8238
Rp8239
sg19
I10
sg20
I7
sbsS'6c9dd8f2'
p8240
(icore
Match
p8241
(dp8242
g6
(lp8243
VU0HTR4KRT
p8244
aVU0HTPM4P8
p8245
asg10
(lp8246
VU0HTQJMHN
p8247
aVU0HTSHTR9
p8248
asg14
g15
(S'\x07\xe0\x0b\x01\r,\x06\x02\xd0w'
p8249
tp8250
Rp8251
sg19
I10
sg20
I6
sbsS'38a3dd18'
p8252
(icore
Match
p8253
(dp8254
g6
(lp8255
VU0834SYHL
p8256
aVU0HTVEJKC
p8257
asg10
(lp8258
VU0J0XLJUD
p8259
aVU17V6C5K6
p8260
asg14
g15
(S"\x07\xe0\x08\x05\x11')\x08\x17\xe3"
p8261
tp8262
Rp8263
sg19
I10
sg20
I1
sbsS'74c0b01a'
p8264
(icore
Match
p8265
(dp8266
g6
(lp8267
VU0JBNHJ3X
p8268
aVU0HTVTLBS
p8269
asg10
(lp8270
VU0KA76231
p8271
aVU1CUW4Z7S
p8272
asg14
g15
(S'\x07\xe0\t\x0e\x0c9-\nr\x97'
p8273
tp8274
Rp8275
sg19
I10
sg20
I9
sbsS'59f55e1c'
p8276
(icore
Match
p8277
(dp8278
g6
(lp8279
VU1CUW4Z7S
p8280
aVU16DF5LQH
p8281
asg10
(lp8282
VU0KCZ16LT
p8283
aVU0J8ETRH7
p8284
asg14
g15
(S'\x07\xe0\t\x01\x104$\x05\x9d{'
p8285
tp8286
Rp8287
sg19
I10
sg20
I2
sbsS'a6bcfbac'
p8288
(icore
Match
p8289
(dp8290
g6
(lp8291
VU0HTJ2DK6
p8292
aVU0J8ETRH7
p8293
asg10
(lp8294
VU0J13UGAF
p8295
aVU0JBNHJ3X
p8296
asg14
g15
(S'\x07\xe0\x07\x14\x0f!"\x0f%='
p8297
tp8298
Rp8299
sg19
I5
sg20
I10
sbsS'a1deff2f'
p8300
(icore
Match
p8301
(dp8302
g6
(lp8303
VU0W5T83EK
p8304
aVU17V6C5K6
p8305
asg10
(lp8306
VU0HTRQ5HQ
p8307
aVU1CUW4Z7S
p8308
asg14
g15
(S'\x07\xe0\x08\x1a\x104\x18\x00\xe7$'
p8309
tp8310
Rp8311
sg19
I10
sg20
I9
sbsS'c63a9eee'
p8312
(icore
Match
p8313
(dp8314
g6
(lp8315
VU0J0XLJUD
p8316
aVU0HTPUK8R
p8317
asg10
(lp8318
VU0HTPM4P8
p8319
aVU0KA76231
p8320
asg14
g15
(S'\x07\xe0\x0b\x19\x11+\x0e\x0cTr'
p8321
tp8322
Rp8323
sg19
I9
sg20
I10
sbsS'1f290515'
p8324
(icore
Match
p8325
(dp8326
g6
(lp8327
VU0HTR4KRT
p8328
aVU0J0XLJUD
p8329
asg10
(lp8330
VU0JBNHJ3X
p8331
aVU0KCZ16LT
p8332
asg14
g15
(S'\x07\xe0\x0b\x1e\x0c\x145\x06Q_'
p8333
tp8334
Rp8335
sg19
I10
sg20
I8
sbsS'95b14538'
p8336
(icore
Match
p8337
(dp8338
g6
(lp8339
VU0HTQ6XQQ
p8340
aVU0HTJ2DK6
p8341
asg10
(lp8342
VU0HTSHTR9
p8343
aVU0KA76231
p8344
asg14
g15
(S'\x07\xe0\t\x0e\x0c\r\x01\t\xed\x0e'
p8345
tp8346
Rp8347
sg19
I10
sg20
I8
sbsS'4e9bb809'
p8348
(icore
Match
p8349
(dp8350
g6
(lp8351
VU0HTR4KRT
p8352
aVU0J8ETRH7
p8353
asg10
(lp8354
VU1CUW4Z7S
p8355
aVU0HTPM4P8
p8356
asg14
g15
(S'\x07\xe0\x0b\t\r+4\x0f\x15\xf0'
p8357
tp8358
Rp8359
sg19
I8
sg20
I10
sbsS'608e97b5'
p8360
(icore
Match
p8361
(dp8362
g6
(lp8363
VU1CUW4Z7S
p8364
aVU0HTSHTR9
p8365
asg10
(lp8366
VU0HTPM4P8
p8367
aVU0KA76231
p8368
asg14
g15
(S'\x07\xe0\x0c\x02\x11\x15 \x0e\x9d\xbd'
p8369
tp8370
Rp8371
sg19
I10
sg20
I1
sbsS'a57ff06d'
p8372
(icore
Match
p8373
(dp8374
g6
(lp8375
VU0HTPM4P8
p8376
aVU0J8ETRH7
p8377
asg10
(lp8378
VU07V0F5AS
p8379
aVU0JBNHJ3X
p8380
asg14
g15
(S'\x07\xe0\x08\x13\x0e\x1f\x01\x01\xb9\x95'
p8381
tp8382
Rp8383
sg19
I5
sg20
I10
sbsS'32d705df'
p8384
(icore
Match
p8385
(dp8386
g6
(lp8387
VU0KA76231
p8388
aVU0HTPM4P8
p8389
asg10
(lp8390
VU0JBNHJ3X
p8391
aVU0HTVTLBS
p8392
asg14
g15
(S'\x07\xe0\x0b\x0f\x0e\x19!\x07\x137'
p8393
tp8394
Rp8395
sg19
I8
sg20
I10
sbsS'0ae7550e'
p8396
(icore
Match
p8397
(dp8398
g6
(lp8399
VU0J13UGAF
p8400
aVU0J8ETRH7
p8401
asg10
(lp8402
VU0HTPUK8R
p8403
aVU1CUW4Z7S
p8404
asg14
g15
(S'\x07\xe0\x08\x1e\x10\x07-\t~\xaf'
p8405
tp8406
Rp8407
sg19
I4
sg20
I10
sbsS'f5153023'
p8408
(icore
Match
p8409
(dp8410
g6
(lp8411
VU0J8ETRH7
p8412
aVU0HTVEJKC
p8413
asg10
(lp8414
VU0JBNHJ3X
p8415
aVU0KA76231
p8416
asg14
g15
(S'\x07\xe0\n\x19\x10\x1f\x1b\x0c\x82\x95'
p8417
tp8418
Rp8419
sg19
I5
sg20
I10
sbsS'17b0f783'
p8420
(icore
Match
p8421
(dp8422
g6
(lp8423
VU0KA76231
p8424
aVU0HTPS3JS
p8425
asg10
(lp8426
VU0HTPM4P8
p8427
aVU0HTJ2DK6
p8428
asg14
g15
(S'\x07\xe0\x0b\x04\x0f\x009\x07\xfc='
p8429
tp8430
Rp8431
sg19
I10
sg20
I4
sbsS'80a2190b'
p8432
(icore
Match
p8433
(dp8434
g6
(lp8435
VU0KCZ16LT
p8436
aVU0HTRQ5HQ
p8437
asg10
(lp8438
VU0JBNHJ3X
p8439
aVU0J8ETRH7
p8440
asg14
g15
(S'\x07\xe0\x0c\x02\x109\x0f\x0bV<'
p8441
tp8442
Rp8443
sg19
I10
sg20
I7
sbsS'df441499'
p8444
(icore
Match
p8445
(dp8446
g6
(lp8447
VU0HTR4KRT
p8448
aVU0HTPS3JS
p8449
asg10
(lp8450
VU0HTQJMHN
p8451
aVU0HTSHTR9
p8452
asg14
g15
(S'\x07\xe0\x0c\x0f\x0e\x0e7\x00\x8ah'
p8453
tp8454
Rp8455
sg19
I10
sg20
I3
sbsS'5cb239c8'
p8456
(icore
Match
p8457
(dp8458
g6
(lp8459
VU0JBNHJ3X
p8460
aVU0HTPM4P8
p8461
asg10
(lp8462
VU0J8ETRH7
p8463
aVU0HTPS3JS
p8464
asg14
g15
(S'\x07\xe0\x08\x17\x0e\x0f\t\x08\xae\xe7'
p8465
tp8466
Rp8467
sg19
I10
sg20
I9
sbsS'6a87d710'
p8468
(icore
Match
p8469
(dp8470
g6
(lp8471
VU0KA76231
p8472
aVU0HTVTLBS
p8473
asg10
(lp8474
VU0HTSHTR9
p8475
aVU0JBNHJ3X
p8476
asg14
g15
(S'\x07\xe0\n\x04\x0b\x14\x13\x0b\xf5\xc0'
p8477
tp8478
Rp8479
sg19
I1
sg20
I10
sbsS'64e4ea9e'
p8480
(icore
Match
p8481
(dp8482
g6
(lp8483
VU0JBNHJ3X
p8484
aVU0HTQJMHN
p8485
asg10
(lp8486
VU0HTPM4P8
p8487
aVU0HTVTLBS
p8488
asg14
g15
(S'\x07\xe0\x0c\r\x10\x03 \x06\\P'
p8489
tp8490
Rp8491
sg19
I9
sg20
I10
sbsS'55050df1'
p8492
(icore
Match
p8493
(dp8494
g6
(lp8495
VU0HTQJMHN
p8496
aVU0HTPS3JS
p8497
asg10
(lp8498
VU0JBNHJ3X
p8499
aVU0HTVTLBS
p8500
asg14
g15
(S'\x07\xe0\x08\x16\x0e:\x01\x0bIE'
p8501
tp8502
Rp8503
sg19
I10
sg20
I6
sbsS'88efe684'
p8504
(icore
Match
p8505
(dp8506
g6
(lp8507
VU0HTVTLBS
p8508
aVU0HTQ6XQQ
p8509
asg10
(lp8510
VU0JBNHJ3X
p8511
aVU16DF5LQH
p8512
asg14
g15
(S'\x07\xe0\x07\x0f\x11\x1a\x01\x02\xf8u'
p8513
tp8514
Rp8515
sg19
I10
sg20
I4
sbsS'7d6e086b'
p8516
(icore
Match
p8517
(dp8518
g6
(lp8519
VU0HTVTLBS
p8520
aVU0HTQ6XQQ
p8521
asg10
(lp8522
VU0HTQJMHN
p8523
aVU0HTJ2DK6
p8524
asg14
g15
(S'\x07\xe0\x0b\x16\x12& \n`;'
p8525
tp8526
Rp8527
sg19
I3
sg20
I10
sbsS'cebe51a2'
p8528
(icore
Match
p8529
(dp8530
g6
(lp8531
VU0J8ETRH7
p8532
aVU0KA76231
p8533
asg10
(lp8534
VU0J13UGAF
p8535
aVU0JBNHJ3X
p8536
asg14
g15
(S'\x07\xe0\t\x0c\x0c\x02\x08\x00z\xb6'
p8537
tp8538
Rp8539
sg19
I9
sg20
I10
sbsS'd6abe9dc'
p8540
(icore
Match
p8541
(dp8542
g6
(lp8543
VU0HTVTLBS
p8544
aVU0J0XLJUD
p8545
asg10
(lp8546
VU0HTSHTR9
p8547
aVU0HTPM4P8
p8548
asg14
g15
(S'\x07\xe0\x07\x16\r\x12\x08\x0bb '
p8549
tp8550
Rp8551
sg19
I6
sg20
I10
sbsS'bbb78d4d'
p8552
(icore
Match
p8553
(dp8554
g6
(lp8555
VU0HTR4KRT
p8556
aVU0J0XLJUD
p8557
asg10
(lp8558
VU0HTVEJKC
p8559
aVU0HTPS3JS
p8560
asg14
g15
(S'\x07\xe0\x0c\x14\x0c2"\x06R/'
p8561
tp8562
Rp8563
sg19
I10
sg20
I9
sbsS'e4825c27'
p8564
(icore
Match
p8565
(dp8566
g6
(lp8567
VU0J13UGAF
p8568
aVU0KA76231
p8569
asg10
(lp8570
VU0JBNHJ3X
p8571
aVU0J8ETRH7
p8572
asg14
g15
(S'\x07\xe0\n\x11\x10"4\r]\xf9'
p8573
tp8574
Rp8575
sg19
I10
sg20
I8
sbsS'27788513'
p8576
(icore
Match
p8577
(dp8578
g6
(lp8579
VU0KA76231
p8580
aVU0KCZ16LT
p8581
asg10
(lp8582
VU0JBNHJ3X
p8583
aVU0HTVTLBS
p8584
asg14
g15
(S'\x07\xe0\t\x0e\x11\x1c)\x0e\x99\xd9'
p8585
tp8586
Rp8587
sg19
I10
sg20
I3
sbsS'ea756eb9'
p8588
(icore
Match
p8589
(dp8590
g6
(lp8591
VU0HTSHTR9
p8592
aVU0J0XLJUD
p8593
asg10
(lp8594
VU0HTQJMHN
p8595
aVU0HTQ6XQQ
p8596
asg14
g15
(S'\x07\xe0\x08\n\x11\x1d\x15\x01\xaaK'
p8597
tp8598
Rp8599
sg19
I10
sg20
I7
sbsS'27b658a6'
p8600
(icore
Match
p8601
(dp8602
g6
(lp8603
VU0J8ETRH7
p8604
aVU0HTVTLBS
p8605
asg10
(lp8606
VU0HTQJMHN
p8607
aVU0HTPM4P8
p8608
asg14
g15
(S'\x07\xe0\x08\x13\x113\x00\x02\xce\xf5'
p8609
tp8610
Rp8611
sg19
I10
sg20
I4
sbsS'e12e6b16'
p8612
(icore
Match
p8613
(dp8614
g6
(lp8615
VU1NGZQV3M
p8616
aVU0W5T83EK
p8617
asg10
(lp8618
VU0UEK3GMR
p8619
aVU0KCZ16LT
p8620
asg14
g15
(S'\x07\xe0\x07\x15\x10\x1e.\x00\x02\xd5'
p8621
tp8622
Rp8623
sg19
I10
sg20
I2
sbsS'567135ec'
p8624
(icore
Match
p8625
(dp8626
g6
(lp8627
VU0HTVEJKC
p8628
aVU0KA76231
p8629
asg10
(lp8630
VU1CUW4Z7S
p8631
aVU0KCZ16LT
p8632
asg14
g15
(S'\x07\xe0\t\x0f\r\x08\x1f\tR\xb5'
p8633
tp8634
Rp8635
sg19
I3
sg20
I10
sbsS'4f296af4'
p8636
(icore
Match
p8637
(dp8638
g6
(lp8639
VU0KA76231
p8640
aVU1CUW4Z7S
p8641
asg10
(lp8642
VU0J8ETRH7
p8643
aVU0JBNHJ3X
p8644
asg14
g15
(S'\x07\xe0\x08\x04\x0c29\t\xf4\xeb'
p8645
tp8646
Rp8647
sg19
I10
sg20
I7
sbsS'959c2830'
p8648
(icore
Match
p8649
(dp8650
g6
(lp8651
VU0J8ETRH7
p8652
aVU0JBNHJ3X
p8653
asg10
(lp8654
VU0HTQJMHN
p8655
aVU0HTVEJKC
p8656
asg14
g15
(S'\x07\xe0\x08\x11\x10\x08\x19\x0bP\x0c'
p8657
tp8658
Rp8659
sg19
I10
sg20
I7
sbsS'878a2424'
p8660
(icore
Match
p8661
(dp8662
g6
(lp8663
VU0HTR4KRT
p8664
aVU0HTSHTR9
p8665
asg10
(lp8666
VU0HTPS3JS
p8667
aVU0HTVTLBS
p8668
asg14
g15
(S'\x07\xe0\x0b\x03\x0e\x15\x01\n[G'
p8669
tp8670
Rp8671
sg19
I10
sg20
I8
sbsS'2ccac010'
p8672
(icore
Match
p8673
(dp8674
g6
(lp8675
VU0J8ETRH7
p8676
aVU0J0XLJUD
p8677
asg10
(lp8678
VU0HTQJMHN
p8679
aVU0JBNHJ3X
p8680
asg14
g15
(S'\x07\xe0\x08\x1a\x0b%\x04\x0e?$'
p8681
tp8682
Rp8683
sg19
I10
sg20
I6
sbsS'33d294ff'
p8684
(icore
Match
p8685
(dp8686
g6
(lp8687
VU0W5T83EK
p8688
aVU17V6C5K6
p8689
asg10
(lp8690
VU0HTRQ5HQ
p8691
aVU1CUW4Z7S
p8692
asg14
g15
(S'\x07\xe0\x08\x1a\x104\x02\x06te'
p8693
tp8694
Rp8695
sg19
I10
sg20
I6
sbsS'017c6527'
p8696
(icore
Match
p8697
(dp8698
g6
(lp8699
VU0HTPM4P8
p8700
aVU0J8ETRH7
p8701
asg10
(lp8702
VU0JBNHJ3X
p8703
aVU0HTR4KRT
p8704
asg14
g15
(S'\x07\xe0\x0b\x03\x0e/\x1a\x01\xea\xe9'
p8705
tp8706
Rp8707
sg19
I9
sg20
I10
sbsS'2434811b'
p8708
(icore
Match
p8709
(dp8710
g6
(lp8711
VU0HTJ2DK6
p8712
aVU0HTQ6XQQ
p8713
asg10
(lp8714
VU1CUW4Z7S
p8715
aVU0J8ETRH7
p8716
asg14
g15
(S'\x07\xe0\t\t\x11\x13,\x0c\xa6\xbd'
p8717
tp8718
Rp8719
sg19
I10
sg20
I5
sbsS'a0f8324c'
p8720
(icore
Match
p8721
(dp8722
g6
(lp8723
VU0JBNHJ3X
p8724
aVU0HTPM4P8
p8725
asg10
(lp8726
VU0J8ETRH7
p8727
aVU0HTPS3JS
p8728
asg14
g15
(S'\x07\xe0\x08\x17\x0e\x0f\r\r\x7f\xaa'
p8729
tp8730
Rp8731
sg19
I9
sg20
I10
sbsS'3a72cd8d'
p8732
(icore
Match
p8733
(dp8734
g6
(lp8735
VU0JBNHJ3X
p8736
aVU0HTPUK8R
p8737
asg10
(lp8738
VU0J0XLJUD
p8739
aVU0HTVTLBS
p8740
asg14
g15
(S'\x07\xe0\x0c\x08\x0f;\x19\x00\x8b\xc4'
p8741
tp8742
Rp8743
sg19
I10
sg20
I7
sbsS'36e2ec0a'
p8744
(icore
Match
p8745
(dp8746
g6
(lp8747
VU0HTPM4P8
p8748
aVU0HTVTLBS
p8749
asg10
(lp8750
VU0HTSHTR9
p8751
aVU0HTQJMHN
p8752
asg14
g15
(S'\x07\xe0\x0b\x04\x109\x19\x08Kn'
p8753
tp8754
Rp8755
sg19
I6
sg20
I10
sbsS'cb0bc19f'
p8756
(icore
Match
p8757
(dp8758
g6
(lp8759
VU0KA76231
p8760
aVU0HTPS3JS
p8761
asg10
(lp8762
VU0HTPM4P8
p8763
aVU0HTJ2DK6
p8764
asg14
g15
(S'\x07\xe0\x0b\x04\x0f\x01\x07\x06Y\x87'
p8765
tp8766
Rp8767
sg19
I6
sg20
I10
sbsS'e8f10077'
p8768
(icore
Match
p8769
(dp8770
g6
(lp8771
VU1CUW4Z7S
p8772
aVU0HTVTLBS
p8773
asg10
(lp8774
VU0HTRQ5HQ
p8775
aVU17V6C5K6
p8776
asg14
g15
(S'\x07\xe0\x07\x1c\x12\x0c\x0b\x07X\x92'
p8777
tp8778
Rp8779
sg19
I10
sg20
I7
sbsS'b7117e7a'
p8780
(icore
Match
p8781
(dp8782
g6
(lp8783
VU0HTSHTR9
p8784
aVU0J0XLJUD
p8785
asg10
(lp8786
VU0HTVEJKC
p8787
aVU0HTQ6XQQ
p8788
asg14
g15
(S'\x07\xe0\x07\x15\x0c#\x01\x01\xcdu'
p8789
tp8790
Rp8791
sg19
I10
sg20
I9
sbsS'df3e5114'
p8792
(icore
Match
p8793
(dp8794
g6
(lp8795
VU0HTJ2DK6
p8796
aVU0HTQ6XQQ
p8797
asg10
(lp8798
VU1CUW4Z7S
p8799
aVU0J8ETRH7
p8800
asg14
g15
(S'\x07\xe0\t\t\x11\x13$\x04\x9e\x17'
p8801
tp8802
Rp8803
sg19
I10
sg20
I8
sbsS'75a62155'
p8804
(icore
Match
p8805
(dp8806
g6
(lp8807
VU0HTR4KRT
p8808
aVU0HTVTLBS
p8809
asg10
(lp8810
VU0HTSHTR9
p8811
aVU0HTVEJKC
p8812
asg14
g15
(S'\x07\xe0\x0b\x1e\x0e\x00#\x08\xa7\xd1'
p8813
tp8814
Rp8815
sg19
I10
sg20
I7
sbsS'3ac1fa91'
p8816
(icore
Match
p8817
(dp8818
g6
(lp8819
VU0J13UGAF
p8820
aVU0JBNHJ3X
p8821
asg10
(lp8822
VU17V6C5K6
p8823
aVU0W5T83EK
p8824
asg14
g15
(S'\x07\xe0\n\x13\x101\x1b\x0f<b'
p8825
tp8826
Rp8827
sg19
I4
sg20
I10
sbsS'22c82e99'
p8828
(icore
Match
p8829
(dp8830
g6
(lp8831
VU0HTQ6XQQ
p8832
aVU0JBNHJ3X
p8833
asg10
(lp8834
VU0HTQJMHN
p8835
aVU0HTVEJKC
p8836
asg14
g15
(S'\x07\xe0\x08\x0b\x1044\x0b\xb5\xb3'
p8837
tp8838
Rp8839
sg19
I10
sg20
I4
sbsS'683fab0b'
p8840
(icore
Match
p8841
(dp8842
g6
(lp8843
VU0KA76231
p8844
aVU0JBNHJ3X
p8845
asg10
(lp8846
VU0HTVTLBS
p8847
aVU0J8ETRH7
p8848
asg14
g15
(S'\x07\xe0\x0c\x0e\r;\x08\x04h\xe4'
p8849
tp8850
Rp8851
sg19
I10
sg20
I6
sbsS'5307521d'
p8852
(icore
Match
p8853
(dp8854
g6
(lp8855
VU0HTPS3JS
p8856
aVU0HTQ6XQQ
p8857
asg10
(lp8858
VU0HTQJMHN
p8859
aVU0HTSHTR9
p8860
asg14
g15
(S"\x07\xe0\x0c\r\x11\x1e;\x04'\xf7"
p8861
tp8862
Rp8863
sg19
I10
sg20
I5
sbsS'e47f371d'
p8864
(icore
Match
p8865
(dp8866
g6
(lp8867
VU0JBNHJ3X
p8868
aVU0J0XLJUD
p8869
asg10
(lp8870
VU0HTPM4P8
p8871
aVU1CUW4Z7S
p8872
asg14
g15
(S'\x07\xe0\n\x14\x0c-\x08\x05\xa53'
p8873
tp8874
Rp8875
sg19
I9
sg20
I10
sbsS'e0fec680'
p8876
(icore
Match
p8877
(dp8878
g6
(lp8879
VU0HTPM4P8
p8880
aVU0HTRQ5HQ
p8881
asg10
(lp8882
VU0J8ETRH7
p8883
aVU0HTPS3JS
p8884
asg14
g15
(S'\x07\xe0\x08\x19\n4\x04\x0eI\xfe'
p8885
tp8886
Rp8887
sg19
I10
sg20
I9
sbsS'4b3c8446'
p8888
(icore
Match
p8889
(dp8890
g6
(lp8891
VU0KCZ16LT
p8892
aVU0J8ETRH7
p8893
asg10
(lp8894
VU0HTQJMHN
p8895
aVU0JBNHJ3X
p8896
asg14
g15
(S'\x07\xe0\x0b\x08\x12\x060\x05\xa0?'
p8897
tp8898
Rp8899
sg19
I10
sg20
I5
sbsS'ba7ca452'
p8900
(icore
Match
p8901
(dp8902
g6
(lp8903
VU0KCZ16LT
p8904
aVU0HTVTLBS
p8905
asg10
(lp8906
VU0JBNHJ3X
p8907
aVU0J13UGAF
p8908
asg14
g15
(S'\x07\xe0\t\x15\x105,\x08\xae\xa6'
p8909
tp8910
Rp8911
sg19
I10
sg20
I9
sbsS'3fc64c83'
p8912
(icore
Match
p8913
(dp8914
g6
(lp8915
VU0HTVTLBS
p8916
aVU0JBNHJ3X
p8917
asg10
(lp8918
VU0HTPS3JS
p8919
aVU0HTPM4P8
p8920
asg14
g15
(S'\x07\xe0\x07\x0f\x0b63\x00\xf5\xbf'
p8921
tp8922
Rp8923
sg19
I10
sg20
I9
sbsS'e189ceae'
p8924
(icore
Match
p8925
(dp8926
g6
(lp8927
VU0KA76231
p8928
aVU0J8ETRH7
p8929
asg10
(lp8930
VU0JBNHJ3X
p8931
aVU1CUW4Z7S
p8932
asg14
g15
(S'\x07\xe0\t\r\r\x01\x1b\x0c\xb2\xda'
p8933
tp8934
Rp8935
sg19
I5
sg20
I10
sbsS'768824fa'
p8936
(icore
Match
p8937
(dp8938
g6
(lp8939
VU0HTPUK8R
p8940
aVU0J0XLJUD
p8941
asg10
(lp8942
VU0JBNHJ3X
p8943
aVU0J8ETRH7
p8944
asg14
g15
(S'\x07\xe0\t\x10\x12\x03\x03\x02\xd5\x96'
p8945
tp8946
Rp8947
sg19
I10
sg20
I3
sbsS'36f10c4c'
p8948
(icore
Match
p8949
(dp8950
g6
(lp8951
VU1CUW4Z7S
p8952
aVU0KA76231
p8953
asg10
(lp8954
VU0JBNHJ3X
p8955
aVU0J8ETRH7
p8956
asg14
g15
(S'\x07\xe0\x0b\x02\x0f$\x0c\x02\xa1\xa7'
p8957
tp8958
Rp8959
sg19
I9
sg20
I10
sbsS'4c962baa'
p8960
(icore
Match
p8961
(dp8962
g6
(lp8963
VU0HTVTLBS
p8964
aVU0JBNHJ3X
p8965
asg10
(lp8966
VU0HTSHTR9
p8967
aVU0HTVEJKC
p8968
asg14
g15
(S'\x07\xe0\x08\x11\x0b\x175\x08\xaa\xbd'
p8969
tp8970
Rp8971
sg19
I10
sg20
I5
sbsS'87b7de9a'
p8972
(icore
Match
p8973
(dp8974
g6
(lp8975
VU0J8ETRH7
p8976
aVU0KCZ16LT
p8977
asg10
(lp8978
VU0JBNHJ3X
p8979
aVU0HTSHTR9
p8980
asg14
g15
(S'\x07\xe0\x0b\x10\x0f&)\x01\xf4*'
p8981
tp8982
Rp8983
sg19
I9
sg20
I10
sbsS'1b349c77'
p8984
(icore
Match
p8985
(dp8986
g6
(lp8987
VU0J8ETRH7
p8988
aVU0HTSHTR9
p8989
asg10
(lp8990
VU0HTVTLBS
p8991
aVU0KCZ16LT
p8992
asg14
g15
(S'\x07\xe0\x08\x12\x0f7\x0f\x01\xcb)'
p8993
tp8994
Rp8995
sg19
I10
sg20
I9
sbsS'cf60c0b9'
p8996
(icore
Match
p8997
(dp8998
g6
(lp8999
VU0KA76231
p9000
aVU0JBNHJ3X
p9001
asg10
(lp9002
VU0HTVEJKC
p9003
aVU0J8ETRH7
p9004
asg14
g15
(S'\x07\xe0\x0c\x0e\r:!\x00\x12\x87'
p9005
tp9006
Rp9007
sg19
I10
sg20
I4
sbsS'0ae70a87'
p9008
(icore
Match
p9009
(dp9010
g6
(lp9011
VU1CUW4Z7S
p9012
aVU0HTRQ5HQ
p9013
asg10
(lp9014
VU0J8ETRH7
p9015
aVU0HTPS3JS
p9016
asg14
g15
(S'\x07\xe0\x08\x19\n33\n\xe2\xa2'
p9017
tp9018
Rp9019
sg19
I10
sg20
I6
sbsS'50b6440f'
p9020
(icore
Match
p9021
(dp9022
g6
(lp9023
VU0HTVTLBS
p9024
aVU0JBNHJ3X
p9025
asg10
(lp9026
VU0HTSHTR9
p9027
aVU0J0XLJUD
p9028
asg14
g15
(S'\x07\xe0\x07\x13\x1129\re\xa9'
p9029
tp9030
Rp9031
sg19
I10
sg20
I6
sbsS'e5a6f7f7'
p9032
(icore
Match
p9033
(dp9034
g6
(lp9035
VU0UEK3GMR
p9036
aVU1CUW4Z7S
p9037
asg10
(lp9038
VU16DF5LQH
p9039
aVU0JBNHJ3X
p9040
asg14
g15
(S'\x07\xe0\x07\x0f\x11\x19$\t\xd3z'
p9041
tp9042
Rp9043
sg19
I10
sg20
I4
sbsS'a328dcaf'
p9044
(icore
Match
p9045
(dp9046
g6
(lp9047
VU0HTVTLBS
p9048
aVU0JBNHJ3X
p9049
asg10
(lp9050
VU0KA76231
p9051
aVU17V6C5K6
p9052
asg14
g15
(S'\x07\xe0\x07\x12\x0b$\n\x08\xcf\x86'
p9053
tp9054
Rp9055
sg19
I10
sg20
I3
sbsS'8465f04b'
p9056
(icore
Match
p9057
(dp9058
g6
(lp9059
VU0HTQJMHN
p9060
aVU0HTSHTR9
p9061
asg10
(lp9062
VU0HTQ6XQQ
p9063
aVU0HTVTLBS
p9064
asg14
g15
(S'\x07\xe0\x07\x1c\x0b\x15\x1b\x0e\xb2\x04'
p9065
tp9066
Rp9067
sg19
I8
sg20
I10
sbsS'e28ca4d6'
p9068
(icore
Match
p9069
(dp9070
g6
(lp9071
VU0KCZ16LT
p9072
aVU0HTJ2DK6
p9073
asg10
(lp9074
VU0HTSHTR9
p9075
aVU0JBNHJ3X
p9076
asg14
g15
(S'\x07\xe0\x0b\x15\x11\x1b\x1d\n\xaeV'
p9077
tp9078
Rp9079
sg19
I10
sg20
I9
sbsS'9b458a9c'
p9080
(icore
Match
p9081
(dp9082
g6
(lp9083
VU1CUW4Z7S
p9084
aVU0HTRQ5HQ
p9085
asg10
(lp9086
VU0JBNHJ3X
p9087
aVU0J8ETRH7
p9088
asg14
g15
(S'\x07\xe0\x08\x1a\x0f\x06&\x04\x1d\x0e'
p9089
tp9090
Rp9091
sg19
I10
sg20
I4
sbsS'81022a37'
p9092
(icore
Match
p9093
(dp9094
g6
(lp9095
VU0HTPM4P8
p9096
aVU0J0XLJUD
p9097
asg10
(lp9098
VU0834SYHL
p9099
aVU0J8ETRH7
p9100
asg14
g15
(S'\x07\xe0\x08\x05\x11\x11\x00\x07\xe0\x8e'
p9101
tp9102
Rp9103
sg19
I0
sg20
I10
sbsS'8c18be84'
p9104
(icore
Match
p9105
(dp9106
g6
(lp9107
VU0HTQ6XQQ
p9108
aVU0J0XLJUD
p9109
asg10
(lp9110
VU0HTQJMHN
p9111
aVU0HTVEJKC
p9112
asg14
g15
(S'\x07\xe0\t\x1a\x0c\x17*\x00\x03w'
p9113
tp9114
Rp9115
sg19
I10
sg20
I5
sbsS'78aac2d0'
p9116
(icore
Match
p9117
(dp9118
g6
(lp9119
VU0J0XLJUD
p9120
aVU0HTVTLBS
p9121
asg10
(lp9122
VU0HTQJMHN
p9123
aVU0HTQ6XQQ
p9124
asg14
g15
(S"\x07\xe0\x08\x1a\x0c8'\x0c\x93\xdc"
p9125
tp9126
Rp9127
sg19
I10
sg20
I1
sbsS'263b0a6c'
p9128
(icore
Match
p9129
(dp9130
g6
(lp9131
VU0J8ETRH7
p9132
aVU0KCZ16LT
p9133
asg10
(lp9134
VU0HTVTLBS
p9135
aVU1CUW4Z7S
p9136
asg14
g15
(S'\x07\xe0\x0b\x0f\x0f\x1a-\t\xe2M'
p9137
tp9138
Rp9139
sg19
I10
sg20
I9
sbsS'ae3a0a8e'
p9140
(icore
Match
p9141
(dp9142
g6
(lp9143
VU0JBNHJ3X
p9144
aVU0J0XLJUD
p9145
asg10
(lp9146
VU0J8ETRH7
p9147
aVU0KA76231
p9148
asg14
g15
(S'\x07\xe0\x0c\x05\x12\x08\x1e\nM0'
p9149
tp9150
Rp9151
sg19
I7
sg20
I10
sbsS'936a244d'
p9152
(icore
Match
p9153
(dp9154
g6
(lp9155
VU0HTVTLBS
p9156
aVU0HTQJMHN
p9157
asg10
(lp9158
VU0HTSHTR9
p9159
aVU0HTPM4P8
p9160
asg14
g15
(S'\x07\xe0\x0c\x14\r\x00\x1f\x0c\xfd|'
p9161
tp9162
Rp9163
sg19
I10
sg20
I7
sbsS'8351cc1e'
p9164
(icore
Match
p9165
(dp9166
g6
(lp9167
VU0HTJ2DK6
p9168
aVU0HTQ6XQQ
p9169
asg10
(lp9170
VU0HTVTLBS
p9171
aVU0HTR4KRT
p9172
asg14
g15
(S'\x07\xe0\x0b\x17\x12\n\x0c\x08\x1fh'
p9173
tp9174
Rp9175
sg19
I8
sg20
I10
sbsS'35d71198'
p9176
(icore
Match
p9177
(dp9178
g6
(lp9179
VU0HTPS3JS
p9180
aVU0HTQ6XQQ
p9181
asg10
(lp9182
VU0HTQJMHN
p9183
aVU0HTSHTR9
p9184
asg14
g15
(S'\x07\xe0\x0c\r\x11\x1f\x04\x0b\xd9;'
p9185
tp9186
Rp9187
sg19
I10
sg20
I2
sbsS'76a54873'
p9188
(icore
Match
p9189
(dp9190
g6
(lp9191
VU0HTR4KRT
p9192
aVU0HTVTLBS
p9193
asg10
(lp9194
VU0HTSHTR9
p9195
aVU0HTQJMHN
p9196
asg14
g15
(S'\x07\xe0\x0c\x14\x08\x199\x0c5\xaf'
p9197
tp9198
Rp9199
sg19
I10
sg20
I3
sbsS'd74b4217'
p9200
(icore
Match
p9201
(dp9202
g6
(lp9203
VU0J0XLJUD
p9204
aVU0HTSHTR9
p9205
asg10
(lp9206
VU0HTVTLBS
p9207
aVU0J8ETRH7
p9208
asg14
g15
(S'\x07\xe0\x07\x0e\x0f\x032\n\xfbq'
p9209
tp9210
Rp9211
sg19
I10
sg20
I6
sbsS'a6661a42'
p9212
(icore
Match
p9213
(dp9214
g6
(lp9215
VU0HTJ2DK6
p9216
aVU0HTQ6XQQ
p9217
asg10
(lp9218
VU0HTQJMHN
p9219
aVU0HTVTLBS
p9220
asg14
g15
(S'\x07\xe0\t\r\x11\x19%\x08\xc7\xa8'
p9221
tp9222
Rp9223
sg19
I10
sg20
I3
sbsS'5c269347'
p9224
(icore
Match
p9225
(dp9226
g6
(lp9227
VU0JBNHJ3X
p9228
aVU0J0XLJUD
p9229
asg10
(lp9230
VU0HTSHTR9
p9231
aVU0KA76231
p9232
asg14
g15
(S'\x07\xe0\n\x0c\x10%\x04\x05^\x9f'
p9233
tp9234
Rp9235
sg19
I10
sg20
I7
sbsS'd5b238a2'
p9236
(icore
Match
p9237
(dp9238
g6
(lp9239
VU0HTSHTR9
p9240
aVU0HTVEJKC
p9241
asg10
(lp9242
VU0HTJ2DK6
p9243
aVU0KA76231
p9244
asg14
g15
(S'\x07\xe0\x0b\x18\x0e(#\x0c\xff\xe2'
p9245
tp9246
Rp9247
sg19
I9
sg20
I10
sbsS'4bd83ce4'
p9248
(icore
Match
p9249
(dp9250
g6
(lp9251
VU0HTVEJKC
p9252
aVU0HTVTLBS
p9253
asg10
(lp9254
VU0HTPM4P8
p9255
aVU0HTR4KRT
p9256
asg14
g15
(S'\x07\xe0\x0c\x14\x11\n%\x04B\xd7'
p9257
tp9258
Rp9259
sg19
I10
sg20
I8
sbsS'6fa905e9'
p9260
(icore
Match
p9261
(dp9262
g6
(lp9263
VU0HTPS3JS
p9264
aVU0HTPUK8R
p9265
asg10
(lp9266
VU0HTVEJKC
p9267
aVU0HTSHTR9
p9268
asg14
g15
(S'\x07\xe0\t\x07\x0f\x0e\n\x03`{'
p9269
tp9270
Rp9271
sg19
I7
sg20
I10
sbsS'fcd4a310'
p9272
(icore
Match
p9273
(dp9274
g6
(lp9275
VU0JBNHJ3X
p9276
aVU0J8ETRH7
p9277
asg10
(lp9278
VU0HTQJMHN
p9279
aVU0KA76231
p9280
asg14
g15
(S'\x07\xe0\x0c\x0e\x10\x15\x0f\x0b\x05h'
p9281
tp9282
Rp9283
sg19
I10
sg20
I3
sbsS'fe1cb281'
p9284
(icore
Match
p9285
(dp9286
g6
(lp9287
VU1CUW4Z7S
p9288
aVU0KA76231
p9289
asg10
(lp9290
VU0JBNHJ3X
p9291
aVU0J8ETRH7
p9292
asg14
g15
(S'\x07\xe0\n\x06\x0f\x1e\x14\x0b3\x8d'
p9293
tp9294
Rp9295
sg19
I7
sg20
I10
sbsS'a7191d6d'
p9296
(icore
Match
p9297
(dp9298
g6
(lp9299
VU0J13UGAF
p9300
aVU0J0XLJUD
p9301
asg10
(lp9302
VU0HTSHTR9
p9303
aVU0HTVTLBS
p9304
asg14
g15
(S'\x07\xe0\t\x1e\x0c0\x1a\x03\xb5\x18'
p9305
tp9306
Rp9307
sg19
I10
sg20
I6
sbsS'1a2ba718'
p9308
(icore
Match
p9309
(dp9310
g6
(lp9311
VU0J13UGAF
p9312
aVU0J8ETRH7
p9313
asg10
(lp9314
VU0JNVCVRT
p9315
aVU0JBNHJ3X
p9316
asg14
g15
(S'\x07\xe0\x07\x1b\x10\x025\x07Ym'
p9317
tp9318
Rp9319
sg19
I9
sg20
I10
sbsS'42d78bce'
p9320
(icore
Match
p9321
(dp9322
g6
(lp9323
VU0HTVTLBS
p9324
aVU0KCZ16LT
p9325
asg10
(lp9326
VU1CUW4Z7S
p9327
aVU0J8ETRH7
p9328
asg14
g15
(S'\x07\xe0\x0c\x14\x10\x079\x08\x0cH'
p9329
tp9330
Rp9331
sg19
I10
sg20
I8
sbsS'2f50c3bc'
p9332
(icore
Match
p9333
(dp9334
g6
(lp9335
VU0HTQJMHN
p9336
aVU0HTPS3JS
p9337
asg10
(lp9338
VU0J8ETRH7
p9339
aVU0JBNHJ3X
p9340
asg14
g15
(S'\x07\xe0\x07\x19\x0f\t7\x0bU\x08'
p9341
tp9342
Rp9343
sg19
I10
sg20
I5
sbsS'a35e9282'
p9344
(icore
Match
p9345
(dp9346
g6
(lp9347
VU0HTJ2DK6
p9348
aVU0J0XLJUD
p9349
asg10
(lp9350
VU0HTVTLBS
p9351
aVU0HTR4KRT
p9352
asg14
g15
(S'\x07\xe0\x0c\x06\x0c6\x07\x07\x1e\r'
p9353
tp9354
Rp9355
sg19
I8
sg20
I10
sbsS'bce8c73e'
p9356
(icore
Match
p9357
(dp9358
g6
(lp9359
VU1CUW4Z7S
p9360
aVU0HTR4KRT
p9361
asg10
(lp9362
VU0HTPM4P8
p9363
aVU0KA76231
p9364
asg14
g15
(S'\x07\xe0\n\x0c\x0f\x1a+\x036\xaf'
p9365
tp9366
Rp9367
sg19
I10
sg20
I9
sbsS'67eca982'
p9368
(icore
Match
p9369
(dp9370
g6
(lp9371
VU0JBNHJ3X
p9372
aVU1CUW4Z7S
p9373
asg10
(lp9374
VU0J0XLJUD
p9375
aVU0HTJ2DK6
p9376
asg14
g15
(S'\x07\xe0\t\x17\x0c\x103\n@\x1c'
p9377
tp9378
Rp9379
sg19
I8
sg20
I10
sbsS'89d32de0'
p9380
(icore
Match
p9381
(dp9382
g6
(lp9383
VU0JBNHJ3X
p9384
aVU0HTJ2DK6
p9385
asg10
(lp9386
VU17V6C5K6
p9387
aVU0W5T83EK
p9388
asg14
g15
(S'\x07\xe0\x08\x03\x10*\x10\x0c\xbez'
p9389
tp9390
Rp9391
sg19
I10
sg20
I6
sbsS'3ef88a4a'
p9392
(icore
Match
p9393
(dp9394
g6
(lp9395
VU0HTQ6XQQ
p9396
aVU0HTVEJKC
p9397
asg10
(lp9398
VU0JBNHJ3X
p9399
aVU0HTSHTR9
p9400
asg14
g15
(S'\x07\xe0\x07\x15\t\r\x12\x08\xaf\xaf'
p9401
tp9402
Rp9403
sg19
I4
sg20
I10
sbsS'f6f40aa7'
p9404
(icore
Match
p9405
(dp9406
g6
(lp9407
VU0J13UGAF
p9408
aVU0HTQJMHN
p9409
asg10
(lp9410
VU0HTPM4P8
p9411
aVU0KCZ16LT
p9412
asg14
g15
(S'\x07\xe0\x08\x1e\x11\x07\t\x08\x1b\xc6'
p9413
tp9414
Rp9415
sg19
I10
sg20
I9
sbsS'9d9bc7fb'
p9416
(icore
Match
p9417
(dp9418
g6
(lp9419
VU0HTPUK8R
p9420
aVU16DF5LQH
p9421
asg10
(lp9422
VU1CUW4Z7S
p9423
aVU0J13UGAF
p9424
asg14
g15
(S'\x07\xe0\t\x01\x0f\x179\r\x8cM'
p9425
tp9426
Rp9427
sg19
I10
sg20
I5
sbsS'13f936b3'
p9428
(icore
Match
p9429
(dp9430
g6
(lp9431
VU0HTVTLBS
p9432
aVU0HTR4KRT
p9433
asg10
(lp9434
VU0HTSHTR9
p9435
aVU0HTQJMHN
p9436
asg14
g15
(S'\x07\xe0\x0b\x16\x11\x10\x07\x08\xb4p'
p9437
tp9438
Rp9439
sg19
I10
sg20
I3
sbsS'f3785eb1'
p9440
(icore
Match
p9441
(dp9442
g6
(lp9443
VU1CUW4Z7S
p9444
aVU0J8ETRH7
p9445
asg10
(lp9446
VU0KA76231
p9447
aVU0KCZ16LT
p9448
asg14
g15
(S"\x07\xe0\x0b\x1d\x11%'\r\x9d\x8e"
p9449
tp9450
Rp9451
sg19
I8
sg20
I10
sbsS'89950c83'
p9452
(icore
Match
p9453
(dp9454
g6
(lp9455
VU0KA76231
p9456
aVU0HTR4KRT
p9457
asg10
(lp9458
VU0W5T83EK
p9459
aVU0J8ETRH7
p9460
asg14
g15
(S'\x07\xe0\x0c\x06\x10"\x0e\x03\xdbv'
p9461
tp9462
Rp9463
sg19
I9
sg20
I10
sbsS'1eb6b444'
p9464
(icore
Match
p9465
(dp9466
g6
(lp9467
VU0KCZ16LT
p9468
aVU0JBNHJ3X
p9469
asg10
(lp9470
VU0HTVEJKC
p9471
aVU0HTPS3JS
p9472
asg14
g15
(S'\x07\xe0\t\x1c\x0b\x1a \x08\x10\xd7'
p9473
tp9474
Rp9475
sg19
I4
sg20
I10
sbsS'b54c9035'
p9476
(icore
Match
p9477
(dp9478
g6
(lp9479
VU0HTJ2DK6
p9480
aVU0JBNHJ3X
p9481
asg10
(lp9482
VU0HTQJMHN
p9483
aVU17V6C5K6
p9484
asg14
g15
(S'\x07\xe0\x08\t\x0b\x08\x11\x07\x0b\xd8'
p9485
tp9486
Rp9487
sg19
I10
sg20
I5
sbsS'75b82b3c'
p9488
(icore
Match
p9489
(dp9490
g6
(lp9491
VU0J8ETRH7
p9492
aVU0KA76231
p9493
asg10
(lp9494
VU0J13UGAF
p9495
aVU0JBNHJ3X
p9496
asg14
g15
(S'\x07\xe0\t\x0c\x0c\x02\x00\x07\x0c7'
p9497
tp9498
Rp9499
sg19
I8
sg20
I10
sbsS'530c98c8'
p9500
(icore
Match
p9501
(dp9502
g6
(lp9503
VU0HTPUK8R
p9504
aVU0KCZ16LT
p9505
asg10
(lp9506
VU0HTPM4P8
p9507
aVU2SDVEFL0
p9508
asg14
g15
(S'\x07\xe0\x0b\n\x0e7"\x0f\x14\xbe'
p9509
tp9510
Rp9511
sg19
I10
sg20
I5
sbsS'4b655065'
p9512
(icore
Match
p9513
(dp9514
g6
(lp9515
VU0HTSHTR9
p9516
aVU0JBNHJ3X
p9517
asg10
(lp9518
VU0HTQJMHN
p9519
aVU0KCZ16LT
p9520
asg14
g15
(S'\x07\xe0\t\r\x0b\x19\x14\x07c\x95'
p9521
tp9522
Rp9523
sg19
I10
sg20
I2
sbsS'32761d37'
p9524
(icore
Match
p9525
(dp9526
g6
(lp9527
VU0J13UGAF
p9528
aVU0J0XLJUD
p9529
asg10
(lp9530
VU0HTQJMHN
p9531
aVU0HTRQ5HQ
p9532
asg14
g15
(S'\x07\xe0\x07\x14\x110 \nuW'
p9533
tp9534
Rp9535
sg19
I10
sg20
I6
sbsS'3e57c11e'
p9536
(icore
Match
p9537
(dp9538
g6
(lp9539
VU0JBNHJ3X
p9540
aVU0J8ETRH7
p9541
asg10
(lp9542
VU0KCZ16LT
p9543
aVU0KA76231
p9544
asg14
g15
(S'\x07\xe0\x0c\x0c\x101#\x04\xe4\xd4'
p9545
tp9546
Rp9547
sg19
I10
sg20
I7
sbsS'c8cf95fc'
p9548
(icore
Match
p9549
(dp9550
g6
(lp9551
VU0HTQ6XQQ
p9552
aVU0J0XLJUD
p9553
asg10
(lp9554
VU0HTJ2DK6
p9555
aVU0HTQJMHN
p9556
asg14
g15
(S'\x07\xe0\x0c\x01\x12\x1c+\x0e\x02\x1f'
p9557
tp9558
Rp9559
sg19
I10
sg20
I5
sbsS'884a4030'
p9560
(icore
Match
p9561
(dp9562
g6
(lp9563
VU0KA76231
p9564
aVU0KCZ16LT
p9565
asg10
(lp9566
VU0JBNHJ3X
p9567
aVU0HTVTLBS
p9568
asg14
g15
(S'\x07\xe0\t\x0e\x11\x1c\x13\x01\xeb\x04'
p9569
tp9570
Rp9571
sg19
I10
sg20
I7
sbsS'fd3be549'
p9572
(icore
Match
p9573
(dp9574
g6
(lp9575
VU0HTVEJKC
p9576
aVU0HTPM4P8
p9577
asg10
(lp9578
VU0HTSHTR9
p9579
aVU0HTQJMHN
p9580
asg14
g15
(S"\x07\xe0\x08\x13\r'#\x01\xa2\xad"
p9581
tp9582
Rp9583
sg19
I10
sg20
I4
sbsS'13dc6d69'
p9584
(icore
Match
p9585
(dp9586
g6
(lp9587
VU0HTVTLBS
p9588
aVU0HTR4KRT
p9589
asg10
(lp9590
VU0HTPS3JS
p9591
aVU0KA76231
p9592
asg14
g15
(S'\x07\xe0\x0c\r\x0e\x17\r\x05\x8f\xda'
p9593
tp9594
Rp9595
sg19
I10
sg20
I4
sbsS'9db687fe'
p9596
(icore
Match
p9597
(dp9598
g6
(lp9599
VU0HTR4KRT
p9600
aVU0J0XLJUD
p9601
asg10
(lp9602
VU0HTVTLBS
p9603
aVU0HTQ6XQQ
p9604
asg14
g15
(S'\x07\xe0\x0b\x02\r\x07\t\x02y\\'
p9605
tp9606
Rp9607
sg19
I2
sg20
I10
sbsS'202f63f4'
p9608
(icore
Match
p9609
(dp9610
g6
(lp9611
VU0HTJ2DK6
p9612
aVU0HTVEJKC
p9613
asg10
(lp9614
VU0HTVTLBS
p9615
aVU0HTR4KRT
p9616
asg14
g15
(S'\x07\xe0\n\x0b\x0e\x14*\x03\xfa:'
p9617
tp9618
Rp9619
sg19
I6
sg20
I10
sbsS'4b128f9e'
p9620
(icore
Match
p9621
(dp9622
g6
(lp9623
VU0HTVTLBS
p9624
aVU0JBNHJ3X
p9625
asg10
(lp9626
VU0J0XLJUD
p9627
aVU0HTSHTR9
p9628
asg14
g15
(S'\x07\xe0\x07\x1d\x0e12\x06\xb2~'
p9629
tp9630
Rp9631
sg19
I4
sg20
I10
sbsS'5c317fb5'
p9632
(icore
Match
p9633
(dp9634
g6
(lp9635
VU0HTJ2DK6
p9636
aVU0J0XLJUD
p9637
asg10
(lp9638
VU0KA76231
p9639
aVU0HTVTLBS
p9640
asg14
g15
(S'\x07\xe0\t\x1c\x105\x1f\x0b\xacA'
p9641
tp9642
Rp9643
sg19
I8
sg20
I10
sbsS'e7464794'
p9644
(icore
Match
p9645
(dp9646
g6
(lp9647
VU0HTQ6XQQ
p9648
aVU0J0XLJUD
p9649
asg10
(lp9650
VU0HTPM4P8
p9651
aVU0HTSHTR9
p9652
asg14
g15
(S'\x07\xe0\x0c\x0e\x104\x01\x04`\xaa'
p9653
tp9654
Rp9655
sg19
I10
sg20
I7
sbsS'9729ad56'
p9656
(icore
Match
p9657
(dp9658
g6
(lp9659
VU1CUW4Z7S
p9660
aVU0KCZ16LT
p9661
asg10
(lp9662
VU0JBNHJ3X
p9663
aVU0HTSHTR9
p9664
asg14
g15
(S'\x07\xe0\x0b\x10\x11\x19\x10\x0b\xaan'
p9665
tp9666
Rp9667
sg19
I6
sg20
I10
sbsS'f083dc66'
p9668
(icore
Match
p9669
(dp9670
g6
(lp9671
VU0HTVTLBS
p9672
aVU0HTSHTR9
p9673
asg10
(lp9674
VU0HTPM4P8
p9675
aVU0HTR4KRT
p9676
asg14
g15
(S'\x07\xe0\n\x19\r\x0b\x0b\x086\xe4'
p9677
tp9678
Rp9679
sg19
I10
sg20
I5
sbsS'4b0580af'
p9680
(icore
Match
p9681
(dp9682
g6
(lp9683
VU0JBNHJ3X
p9684
aVU07V0F5AS
p9685
asg10
(lp9686
VU17V6C5K6
p9687
aVU0JB5HB46
p9688
asg14
g15
(S'\x07\xe0\x08\x02\x0f\x0b\x08\x06\x1c\xe4'
p9689
tp9690
Rp9691
sg19
I5
sg20
I10
sbsS'8efc0315'
p9692
(icore
Match
p9693
(dp9694
g6
(lp9695
VU0HTR4KRT
p9696
aVU0HTPS3JS
p9697
asg10
(lp9698
VU0HTQJMHN
p9699
aVU0HTSHTR9
p9700
asg14
g15
(S'\x07\xe0\x0c\x0f\x0e\x0e9\r\x1dJ'
p9701
tp9702
Rp9703
sg19
I10
sg20
I6
sbss.
